                        .module _11fish.c
                        .area text(rom, con, rel)
 0000                   .dbfile G:\wsg\SchoolTrain\FishRobot\机器鱼\机器鱼培训资料\机器鱼培训资料\机器鱼鱼体波程序\fish_0_100115\11fish.c
                        .area data(ram, con, rel)
 0000                   .dbfile G:\wsg\SchoolTrain\FishRobot\机器鱼\机器鱼培训资料\机器鱼培训资料\机器鱼鱼体波程序\fish_0_100115\11fish.c
 0000           _Speed::
 0000                   .blkb 1
                        .area idata
 0000 00                .byte 0
                        .area data(ram, con, rel)
 0001                   .dbfile G:\wsg\SchoolTrain\FishRobot\机器鱼\机器鱼培训资料\机器鱼培训资料\机器鱼鱼体波程序\fish_0_100115\11fish.c
 0001                   .dbsym e Speed _Speed c
 0001           _Instant::
 0001                   .blkb 1
                        .area idata
 0001 00                .byte 0
                        .area data(ram, con, rel)
 0002                   .dbfile G:\wsg\SchoolTrain\FishRobot\机器鱼\机器鱼培训资料\机器鱼培训资料\机器鱼鱼体波程序\fish_0_100115\11fish.c
 0002                   .dbsym e Instant _Instant c
 0002           _redata_fan::
 0002                   .blkb 1
                        .area idata
 0002 00                .byte 0
                        .area data(ram, con, rel)
 0003                   .dbfile G:\wsg\SchoolTrain\FishRobot\机器鱼\机器鱼培训资料\机器鱼培训资料\机器鱼鱼体波程序\fish_0_100115\11fish.c
 0003                   .dbsym e redata_fan _redata_fan c
 0003           _id_fan::
 0003                   .blkb 1
                        .area idata
 0003 00                .byte 0
                        .area data(ram, con, rel)
 0004                   .dbfile G:\wsg\SchoolTrain\FishRobot\机器鱼\机器鱼培训资料\机器鱼培训资料\机器鱼鱼体波程序\fish_0_100115\11fish.c
 0004                   .dbsym e id_fan _id_fan c
 0004           _baocun_i::
 0004                   .blkb 1
                        .area idata
 0004 00                .byte 0
                        .area data(ram, con, rel)
 0005                   .dbfile G:\wsg\SchoolTrain\FishRobot\机器鱼\机器鱼培训资料\机器鱼培训资料\机器鱼鱼体波程序\fish_0_100115\11fish.c
 0005                   .dbsym e baocun_i _baocun_i c
 0005           _t_dynamic::
 0005                   .blkb 1
                        .area idata
 0005 00                .byte 0
                        .area data(ram, con, rel)
 0006                   .dbfile G:\wsg\SchoolTrain\FishRobot\机器鱼\机器鱼培训资料\机器鱼培训资料\机器鱼鱼体波程序\fish_0_100115\11fish.c
 0006                   .dbsym e t_dynamic _t_dynamic c
 0006           _Speed_dynamic::
 0006                   .blkb 1
                        .area idata
 0006 00                .byte 0
                        .area data(ram, con, rel)
 0007                   .dbfile G:\wsg\SchoolTrain\FishRobot\机器鱼\机器鱼培训资料\机器鱼培训资料\机器鱼鱼体波程序\fish_0_100115\11fish.c
 0007                   .dbsym e Speed_dynamic _Speed_dynamic c
 0007           _n::
 0007                   .blkb 1
                        .area idata
 0007 00                .byte 0
                        .area data(ram, con, rel)
 0008                   .dbfile G:\wsg\SchoolTrain\FishRobot\机器鱼\机器鱼培训资料\机器鱼培训资料\机器鱼鱼体波程序\fish_0_100115\11fish.c
 0008                   .dbsym e n _n c
 0008           _m::
 0008                   .blkb 1
                        .area idata
 0008 00                .byte 0
                        .area data(ram, con, rel)
 0009                   .dbfile G:\wsg\SchoolTrain\FishRobot\机器鱼\机器鱼培训资料\机器鱼培训资料\机器鱼鱼体波程序\fish_0_100115\11fish.c
 0009                   .dbsym e m _m c
 0009           _s::
 0009                   .blkb 1
                        .area idata
 0009 00                .byte 0
                        .area data(ram, con, rel)
 000A                   .dbfile G:\wsg\SchoolTrain\FishRobot\机器鱼\机器鱼培训资料\机器鱼培训资料\机器鱼鱼体波程序\fish_0_100115\11fish.c
 000A                   .dbsym e s _s c
 000A           _FISHID::
 000A                   .blkb 1
                        .area idata
 000A 01                .byte 1
                        .area data(ram, con, rel)
 000B                   .dbfile G:\wsg\SchoolTrain\FishRobot\机器鱼\机器鱼培训资料\机器鱼培训资料\机器鱼鱼体波程序\fish_0_100115\11fish.c
 000B                   .dbsym e FISHID _FISHID A[1:1]c
 000B           _FISHID_init::
 000B                   .blkb 1
                        .area idata
 000B 01                .byte 1
                        .area data(ram, con, rel)
 000C                   .dbfile G:\wsg\SchoolTrain\FishRobot\机器鱼\机器鱼培训资料\机器鱼培训资料\机器鱼鱼体波程序\fish_0_100115\11fish.c
 000C                   .dbsym e FISHID_init _FISHID_init A[1:1]c
 000C           _FISHID_I2C::
 000C                   .blkb 2
                        .area idata
 000C 0000              .byte 0,0
                        .area data(ram, con, rel)
 000E                   .dbfile G:\wsg\SchoolTrain\FishRobot\机器鱼\机器鱼培训资料\机器鱼培训资料\机器鱼鱼体波程序\fish_0_100115\11fish.c
 000E                   .blkb 1
                        .area idata
 000E 01                .byte 1
                        .area data(ram, con, rel)
 000F                   .dbfile G:\wsg\SchoolTrain\FishRobot\机器鱼\机器鱼培训资料\机器鱼培训资料\机器鱼鱼体波程序\fish_0_100115\11fish.c
 000F                   .dbsym e FISHID_I2C _FISHID_I2C A[3:3]c
 000F           _freqs::
 000F                   .blkb 1
                        .area idata
 000F 00                .byte 0
                        .area data(ram, con, rel)
 0010                   .dbfile G:\wsg\SchoolTrain\FishRobot\机器鱼\机器鱼培训资料\机器鱼培训资料\机器鱼鱼体波程序\fish_0_100115\11fish.c
 0010                   .dbsym e freqs _freqs A[1:1]c
 0010           _freqs_init::
 0010                   .blkb 1
                        .area idata
 0010 00                .byte 0
                        .area data(ram, con, rel)
 0011                   .dbfile G:\wsg\SchoolTrain\FishRobot\机器鱼\机器鱼培训资料\机器鱼培训资料\机器鱼鱼体波程序\fish_0_100115\11fish.c
 0011                   .dbsym e freqs_init _freqs_init A[1:1]c
 0011           _freqs_I2C::
 0011                   .blkb 2
                        .area idata
 0011 0000              .byte 0,0
                        .area data(ram, con, rel)
 0013                   .dbfile G:\wsg\SchoolTrain\FishRobot\机器鱼\机器鱼培训资料\机器鱼培训资料\机器鱼鱼体波程序\fish_0_100115\11fish.c
 0013                   .blkb 1
                        .area idata
 0013 00                .byte 0
                        .area data(ram, con, rel)
 0014                   .dbfile G:\wsg\SchoolTrain\FishRobot\机器鱼\机器鱼培训资料\机器鱼培训资料\机器鱼鱼体波程序\fish_0_100115\11fish.c
 0014                   .dbsym e freqs_I2C _freqs_I2C A[3:3]c
 0014           _Static_Offset_degree::
 0014                   .blkb 2
                        .area idata
 0014 0000              .byte 0,0
                        .area data(ram, con, rel)
 0016                   .dbfile G:\wsg\SchoolTrain\FishRobot\机器鱼\机器鱼培训资料\机器鱼培训资料\机器鱼鱼体波程序\fish_0_100115\11fish.c
 0016                   .blkb 1
                        .area idata
 0016 00                .byte 0
                        .area data(ram, con, rel)
 0017                   .dbfile G:\wsg\SchoolTrain\FishRobot\机器鱼\机器鱼培训资料\机器鱼培训资料\机器鱼鱼体波程序\fish_0_100115\11fish.c
 0017                   .dbsym e Static_Offset_degree _Static_Offset_degree A[3:3]c
 0017           _Static_Offset_degree_init::
 0017                   .blkb 2
                        .area idata
 0017 0000              .byte 0,0
                        .area data(ram, con, rel)
 0019                   .dbfile G:\wsg\SchoolTrain\FishRobot\机器鱼\机器鱼培训资料\机器鱼培训资料\机器鱼鱼体波程序\fish_0_100115\11fish.c
 0019                   .blkb 1
                        .area idata
 0019 00                .byte 0
                        .area data(ram, con, rel)
 001A                   .dbfile G:\wsg\SchoolTrain\FishRobot\机器鱼\机器鱼培训资料\机器鱼培训资料\机器鱼鱼体波程序\fish_0_100115\11fish.c
 001A                   .dbsym e Static_Offset_degree_init _Static_Offset_degree_init A[3:3]c
 001A           _degree_I2C::
 001A                   .blkb 2
                        .area idata
 001A 0000              .byte 0,0
                        .area data(ram, con, rel)
 001C                   .dbfile G:\wsg\SchoolTrain\FishRobot\机器鱼\机器鱼培训资料\机器鱼培训资料\机器鱼鱼体波程序\fish_0_100115\11fish.c
 001C                   .blkb 2
                        .area idata
 001C 0000              .byte 0,0
                        .area data(ram, con, rel)
 001E                   .dbfile G:\wsg\SchoolTrain\FishRobot\机器鱼\机器鱼培训资料\机器鱼培训资料\机器鱼鱼体波程序\fish_0_100115\11fish.c
 001E                   .blkb 1
                        .area idata
 001E 00                .byte 0
                        .area data(ram, con, rel)
 001F                   .dbfile G:\wsg\SchoolTrain\FishRobot\机器鱼\机器鱼培训资料\机器鱼培训资料\机器鱼鱼体波程序\fish_0_100115\11fish.c
 001F                   .dbsym e degree_I2C _degree_I2C A[5:5]c
 001F           _Speed_tem_init::
 001F                   .blkb 2
                        .area idata
 001F 00FF              .byte 0,255
                        .area data(ram, con, rel)
 0021                   .dbfile G:\wsg\SchoolTrain\FishRobot\机器鱼\机器鱼培训资料\机器鱼培训资料\机器鱼鱼体波程序\fish_0_100115\11fish.c
 0021                   .blkb 2
                        .area idata
 0021 F0E1              .byte 240,225
                        .area data(ram, con, rel)
 0023                   .dbfile G:\wsg\SchoolTrain\FishRobot\机器鱼\机器鱼培训资料\机器鱼培训资料\机器鱼鱼体波程序\fish_0_100115\11fish.c
 0023                   .blkb 2
                        .area idata
 0023 D2C3              .byte 210,195
                        .area data(ram, con, rel)
 0025                   .dbfile G:\wsg\SchoolTrain\FishRobot\机器鱼\机器鱼培训资料\机器鱼培训资料\机器鱼鱼体波程序\fish_0_100115\11fish.c
 0025                   .blkb 2
                        .area idata
 0025 B4A5              .byte 180,165
                        .area data(ram, con, rel)
 0027                   .dbfile G:\wsg\SchoolTrain\FishRobot\机器鱼\机器鱼培训资料\机器鱼培训资料\机器鱼鱼体波程序\fish_0_100115\11fish.c
 0027                   .blkb 2
                        .area idata
 0027 9687              .byte 150,135
                        .area data(ram, con, rel)
 0029                   .dbfile G:\wsg\SchoolTrain\FishRobot\机器鱼\机器鱼培训资料\机器鱼培训资料\机器鱼鱼体波程序\fish_0_100115\11fish.c
 0029                   .blkb 2
                        .area idata
 0029 7869              .byte 'x,'i
                        .area data(ram, con, rel)
 002B                   .dbfile G:\wsg\SchoolTrain\FishRobot\机器鱼\机器鱼培训资料\机器鱼培训资料\机器鱼鱼体波程序\fish_0_100115\11fish.c
 002B                   .blkb 2
                        .area idata
 002B 5A4B              .byte 'Z,'K
                        .area data(ram, con, rel)
 002D                   .dbfile G:\wsg\SchoolTrain\FishRobot\机器鱼\机器鱼培训资料\机器鱼培训资料\机器鱼鱼体波程序\fish_0_100115\11fish.c
 002D                   .blkb 2
                        .area idata
 002D 3C2D              .byte 60,45
                        .area data(ram, con, rel)
 002F                   .dbfile G:\wsg\SchoolTrain\FishRobot\机器鱼\机器鱼培训资料\机器鱼培训资料\机器鱼鱼体波程序\fish_0_100115\11fish.c
 002F                   .dbsym e Speed_tem_init _Speed_tem_init A[16:16]c
 002F           _Speed_tem_I2C::
 002F                   .blkb 1
                        .area idata
 002F 00                .byte 0
                        .area data(ram, con, rel)
 0030                   .dbfile G:\wsg\SchoolTrain\FishRobot\机器鱼\机器鱼培训资料\机器鱼培训资料\机器鱼鱼体波程序\fish_0_100115\11fish.c
 0030                   .blkb 17
                        .area idata
 0030 00000000000000000000      .word 0,0,0,0,0
 003A 00000000000000    .byte 0,0,0,0,0,0,0
                        .area data(ram, con, rel)
 0041                   .dbfile G:\wsg\SchoolTrain\FishRobot\机器鱼\机器鱼培训资料\机器鱼培训资料\机器鱼鱼体波程序\fish_0_100115\11fish.c
 0041                   .dbsym e Speed_tem_I2C _Speed_tem_I2C A[18:18]c
 0041           _Speed_tem_init1::
 0041                   .blkb 1
                        .area idata
 0041 00                .byte 0
                        .area data(ram, con, rel)
 0042                   .dbfile G:\wsg\SchoolTrain\FishRobot\机器鱼\机器鱼培训资料\机器鱼培训资料\机器鱼鱼体波程序\fish_0_100115\11fish.c
 0042                   .blkb 7
                        .area idata
 0042 00000000000000    .byte 0,0,0,0,0,0,0
                        .area data(ram, con, rel)
 0049                   .dbfile G:\wsg\SchoolTrain\FishRobot\机器鱼\机器鱼培训资料\机器鱼培训资料\机器鱼鱼体波程序\fish_0_100115\11fish.c
 0049                   .dbsym e Speed_tem_init1 _Speed_tem_init1 A[8:8]c
 0049           _Speed_tem_init2::
 0049                   .blkb 1
                        .area idata
 0049 00                .byte 0
                        .area data(ram, con, rel)
 004A                   .dbfile G:\wsg\SchoolTrain\FishRobot\机器鱼\机器鱼培训资料\机器鱼培训资料\机器鱼鱼体波程序\fish_0_100115\11fish.c
 004A                   .blkb 7
                        .area idata
 004A 00000000000000    .byte 0,0,0,0,0,0,0
                        .area data(ram, con, rel)
 0051                   .dbfile G:\wsg\SchoolTrain\FishRobot\机器鱼\机器鱼培训资料\机器鱼培训资料\机器鱼鱼体波程序\fish_0_100115\11fish.c
 0051                   .dbsym e Speed_tem_init2 _Speed_tem_init2 A[8:8]c
 0051           _Speed_tem_z::
 0051                   .blkb 1
                        .area idata
 0051 00                .byte 0
                        .area data(ram, con, rel)
 0052                   .dbfile G:\wsg\SchoolTrain\FishRobot\机器鱼\机器鱼培训资料\机器鱼培训资料\机器鱼鱼体波程序\fish_0_100115\11fish.c
 0052                   .blkb 15
                        .area idata
 0052 00000000000000000000      .word 0,0,0,0,0
 005C 0000000000        .byte 0,0,0,0,0
                        .area data(ram, con, rel)
 0061                   .dbfile G:\wsg\SchoolTrain\FishRobot\机器鱼\机器鱼培训资料\机器鱼培训资料\机器鱼鱼体波程序\fish_0_100115\11fish.c
 0061                   .dbsym e Speed_tem_z _Speed_tem_z A[16:16]c
 0061           _Speed_tem_z1::
 0061                   .blkb 1
                        .area idata
 0061 00                .byte 0
                        .area data(ram, con, rel)
 0062                   .dbfile G:\wsg\SchoolTrain\FishRobot\机器鱼\机器鱼培训资料\机器鱼培训资料\机器鱼鱼体波程序\fish_0_100115\11fish.c
 0062                   .blkb 7
                        .area idata
 0062 00000000000000    .byte 0,0,0,0,0,0,0
                        .area data(ram, con, rel)
 0069                   .dbfile G:\wsg\SchoolTrain\FishRobot\机器鱼\机器鱼培训资料\机器鱼培训资料\机器鱼鱼体波程序\fish_0_100115\11fish.c
 0069                   .dbsym e Speed_tem_z1 _Speed_tem_z1 A[8:8]c
 0069           _Speed_tem_z2::
 0069                   .blkb 1
                        .area idata
 0069 00                .byte 0
                        .area data(ram, con, rel)
 006A                   .dbfile G:\wsg\SchoolTrain\FishRobot\机器鱼\机器鱼培训资料\机器鱼培训资料\机器鱼鱼体波程序\fish_0_100115\11fish.c
 006A                   .blkb 7
                        .area idata
 006A 00000000000000    .byte 0,0,0,0,0,0,0
                        .area data(ram, con, rel)
 0071                   .dbfile G:\wsg\SchoolTrain\FishRobot\机器鱼\机器鱼培训资料\机器鱼培训资料\机器鱼鱼体波程序\fish_0_100115\11fish.c
 0071                   .dbsym e Speed_tem_z2 _Speed_tem_z2 A[8:8]c
 0071           _Speed_tem_I2C1::
 0071                   .blkb 1
                        .area idata
 0071 00                .byte 0
                        .area data(ram, con, rel)
 0072                   .dbfile G:\wsg\SchoolTrain\FishRobot\机器鱼\机器鱼培训资料\机器鱼培训资料\机器鱼鱼体波程序\fish_0_100115\11fish.c
 0072                   .blkb 9
                        .area idata
 0072 000000000000000000        .byte 0,0,0,0,0,0,0,0,0
                        .area data(ram, con, rel)
 007B                   .dbfile G:\wsg\SchoolTrain\FishRobot\机器鱼\机器鱼培训资料\机器鱼培训资料\机器鱼鱼体波程序\fish_0_100115\11fish.c
 007B                   .dbsym e Speed_tem_I2C1 _Speed_tem_I2C1 A[10:10]c
 007B           _Speed_tem_I2C2::
 007B                   .blkb 1
                        .area idata
 007B 00                .byte 0
                        .area data(ram, con, rel)
 007C                   .dbfile G:\wsg\SchoolTrain\FishRobot\机器鱼\机器鱼培训资料\机器鱼培训资料\机器鱼鱼体波程序\fish_0_100115\11fish.c
 007C                   .blkb 9
                        .area idata
 007C 000000000000000000        .byte 0,0,0,0,0,0,0,0,0
                        .area data(ram, con, rel)
 0085                   .dbfile G:\wsg\SchoolTrain\FishRobot\机器鱼\机器鱼培训资料\机器鱼培训资料\机器鱼鱼体波程序\fish_0_100115\11fish.c
 0085                   .dbsym e Speed_tem_I2C2 _Speed_tem_I2C2 A[10:10]c
 0085           _Neighbouring_Offset_degree_init::
 0085                   .blkb 2
                        .area idata
 0085 0050              .byte 0,'P
                        .area data(ram, con, rel)
 0087                   .dbfile G:\wsg\SchoolTrain\FishRobot\机器鱼\机器鱼培训资料\机器鱼培训资料\机器鱼鱼体波程序\fish_0_100115\11fish.c
 0087                   .blkb 1
                        .area idata
 0087 78                .byte 'x
                        .area data(ram, con, rel)
 0088                   .dbfile G:\wsg\SchoolTrain\FishRobot\机器鱼\机器鱼培训资料\机器鱼培训资料\机器鱼鱼体波程序\fish_0_100115\11fish.c
 0088                   .dbsym e Neighbouring_Offset_degree_init _Neighbouring_Offset_degree_init A[3:3]c
 0088           _Neighbouring_Offset_degree_I2C::
 0088                   .blkb 1
                        .area idata
 0088 00                .byte 0
                        .area data(ram, con, rel)
 0089                   .dbfile G:\wsg\SchoolTrain\FishRobot\机器鱼\机器鱼培训资料\机器鱼培训资料\机器鱼鱼体波程序\fish_0_100115\11fish.c
 0089                   .blkb 4
                        .area idata
 0089 00000000          .byte 0,0,0,0
                        .area data(ram, con, rel)
 008D                   .dbfile G:\wsg\SchoolTrain\FishRobot\机器鱼\机器鱼培训资料\机器鱼培训资料\机器鱼鱼体波程序\fish_0_100115\11fish.c
 008D                   .dbsym e Neighbouring_Offset_degree_I2C _Neighbouring_Offset_degree_I2C A[5:5]c
 008D           _Amplitude_degree_tem_init::
 008D                   .blkb 2
                        .area idata
 008D 020C              .byte 2,12
                        .area data(ram, con, rel)
 008F                   .dbfile G:\wsg\SchoolTrain\FishRobot\机器鱼\机器鱼培训资料\机器鱼培训资料\机器鱼鱼体波程序\fish_0_100115\11fish.c
 008F                   .blkb 2
                        .area idata
 008F 1103              .byte 17,3
                        .area data(ram, con, rel)
 0091                   .dbfile G:\wsg\SchoolTrain\FishRobot\机器鱼\机器鱼培训资料\机器鱼培训资料\机器鱼鱼体波程序\fish_0_100115\11fish.c
 0091                   .blkb 2
                        .area idata
 0091 0D12              .byte 13,18
                        .area data(ram, con, rel)
 0093                   .dbfile G:\wsg\SchoolTrain\FishRobot\机器鱼\机器鱼培训资料\机器鱼培训资料\机器鱼鱼体波程序\fish_0_100115\11fish.c
 0093                   .blkb 2
                        .area idata
 0093 040E              .byte 4,14
                        .area data(ram, con, rel)
 0095                   .dbfile G:\wsg\SchoolTrain\FishRobot\机器鱼\机器鱼培训资料\机器鱼培训资料\机器鱼鱼体波程序\fish_0_100115\11fish.c
 0095                   .blkb 2
                        .area idata
 0095 1305              .byte 19,5
                        .area data(ram, con, rel)
 0097                   .dbfile G:\wsg\SchoolTrain\FishRobot\机器鱼\机器鱼培训资料\机器鱼培训资料\机器鱼鱼体波程序\fish_0_100115\11fish.c
 0097                   .blkb 2
                        .area idata
 0097 0F14              .byte 15,20
                        .area data(ram, con, rel)
 0099                   .dbfile G:\wsg\SchoolTrain\FishRobot\机器鱼\机器鱼培训资料\机器鱼培训资料\机器鱼鱼体波程序\fish_0_100115\11fish.c
 0099                   .blkb 2
                        .area idata
 0099 0610              .byte 6,16
                        .area data(ram, con, rel)
 009B                   .dbfile G:\wsg\SchoolTrain\FishRobot\机器鱼\机器鱼培训资料\机器鱼培训资料\机器鱼鱼体波程序\fish_0_100115\11fish.c
 009B                   .blkb 2
                        .area idata
 009B 1507              .byte 21,7
                        .area data(ram, con, rel)
 009D                   .dbfile G:\wsg\SchoolTrain\FishRobot\机器鱼\机器鱼培训资料\机器鱼培训资料\机器鱼鱼体波程序\fish_0_100115\11fish.c
 009D                   .blkb 2
                        .area idata
 009D 1116              .byte 17,22
                        .area data(ram, con, rel)
 009F                   .dbfile G:\wsg\SchoolTrain\FishRobot\机器鱼\机器鱼培训资料\机器鱼培训资料\机器鱼鱼体波程序\fish_0_100115\11fish.c
 009F                   .blkb 2
                        .area idata
 009F 0812              .byte 8,18
                        .area data(ram, con, rel)
 00A1                   .dbfile G:\wsg\SchoolTrain\FishRobot\机器鱼\机器鱼培训资料\机器鱼培训资料\机器鱼鱼体波程序\fish_0_100115\11fish.c
 00A1                   .blkb 2
                        .area idata
 00A1 1709              .byte 23,9
                        .area data(ram, con, rel)
 00A3                   .dbfile G:\wsg\SchoolTrain\FishRobot\机器鱼\机器鱼培训资料\机器鱼培训资料\机器鱼鱼体波程序\fish_0_100115\11fish.c
 00A3                   .blkb 2
                        .area idata
 00A3 1318              .byte 19,24
                        .area data(ram, con, rel)
 00A5                   .dbfile G:\wsg\SchoolTrain\FishRobot\机器鱼\机器鱼培训资料\机器鱼培训资料\机器鱼鱼体波程序\fish_0_100115\11fish.c
 00A5                   .blkb 2
                        .area idata
 00A5 0A14              .byte 10,20
                        .area data(ram, con, rel)
 00A7                   .dbfile G:\wsg\SchoolTrain\FishRobot\机器鱼\机器鱼培训资料\机器鱼培训资料\机器鱼鱼体波程序\fish_0_100115\11fish.c
 00A7                   .blkb 2
                        .area idata
 00A7 190B              .byte 25,11
                        .area data(ram, con, rel)
 00A9                   .dbfile G:\wsg\SchoolTrain\FishRobot\机器鱼\机器鱼培训资料\机器鱼培训资料\机器鱼鱼体波程序\fish_0_100115\11fish.c
 00A9                   .blkb 2
                        .area idata
 00A9 151A              .byte 21,26
                        .area data(ram, con, rel)
 00AB                   .dbfile G:\wsg\SchoolTrain\FishRobot\机器鱼\机器鱼培训资料\机器鱼培训资料\机器鱼鱼体波程序\fish_0_100115\11fish.c
 00AB                   .blkb 2
                        .area idata
 00AB 0C16              .byte 12,22
                        .area data(ram, con, rel)
 00AD                   .dbfile G:\wsg\SchoolTrain\FishRobot\机器鱼\机器鱼培训资料\机器鱼培训资料\机器鱼鱼体波程序\fish_0_100115\11fish.c
 00AD                   .blkb 2
                        .area idata
 00AD 1B0D              .byte 27,13
                        .area data(ram, con, rel)
 00AF                   .dbfile G:\wsg\SchoolTrain\FishRobot\机器鱼\机器鱼培训资料\机器鱼培训资料\机器鱼鱼体波程序\fish_0_100115\11fish.c
 00AF                   .blkb 2
                        .area idata
 00AF 171C              .byte 23,28
                        .area data(ram, con, rel)
 00B1                   .dbfile G:\wsg\SchoolTrain\FishRobot\机器鱼\机器鱼培训资料\机器鱼培训资料\机器鱼鱼体波程序\fish_0_100115\11fish.c
 00B1                   .blkb 2
                        .area idata
 00B1 0E18              .byte 14,24
                        .area data(ram, con, rel)
 00B3                   .dbfile G:\wsg\SchoolTrain\FishRobot\机器鱼\机器鱼培训资料\机器鱼培训资料\机器鱼鱼体波程序\fish_0_100115\11fish.c
 00B3                   .blkb 2
                        .area idata
 00B3 1D0F              .byte 29,15
                        .area data(ram, con, rel)
 00B5                   .dbfile G:\wsg\SchoolTrain\FishRobot\机器鱼\机器鱼培训资料\机器鱼培训资料\机器鱼鱼体波程序\fish_0_100115\11fish.c
 00B5                   .blkb 2
                        .area idata
 00B5 191E              .byte 25,30
                        .area data(ram, con, rel)
 00B7                   .dbfile G:\wsg\SchoolTrain\FishRobot\机器鱼\机器鱼培训资料\机器鱼培训资料\机器鱼鱼体波程序\fish_0_100115\11fish.c
 00B7                   .blkb 2
                        .area idata
 00B7 101A              .byte 16,26
                        .area data(ram, con, rel)
 00B9                   .dbfile G:\wsg\SchoolTrain\FishRobot\机器鱼\机器鱼培训资料\机器鱼培训资料\机器鱼鱼体波程序\fish_0_100115\11fish.c
 00B9                   .blkb 2
                        .area idata
 00B9 1F11              .byte 31,17
                        .area data(ram, con, rel)
 00BB                   .dbfile G:\wsg\SchoolTrain\FishRobot\机器鱼\机器鱼培训资料\机器鱼培训资料\机器鱼鱼体波程序\fish_0_100115\11fish.c
 00BB                   .blkb 2
                        .area idata
 00BB 1B20              .byte 27,32
                        .area data(ram, con, rel)
 00BD                   .dbfile G:\wsg\SchoolTrain\FishRobot\机器鱼\机器鱼培训资料\机器鱼培训资料\机器鱼鱼体波程序\fish_0_100115\11fish.c
 00BD                   .dbsym e Amplitude_degree_tem_init _Amplitude_degree_tem_init A[48:48]c
 00BD           _Amplitude_degree_tem_init1::
 00BD                   .blkb 1
                        .area idata
 00BD 00                .byte 0
                        .area data(ram, con, rel)
 00BE                   .dbfile G:\wsg\SchoolTrain\FishRobot\机器鱼\机器鱼培训资料\机器鱼培训资料\机器鱼鱼体波程序\fish_0_100115\11fish.c
 00BE                   .blkb 7
                        .area idata
 00BE 00000000000000    .byte 0,0,0,0,0,0,0
                        .area data(ram, con, rel)
 00C5                   .dbfile G:\wsg\SchoolTrain\FishRobot\机器鱼\机器鱼培训资料\机器鱼培训资料\机器鱼鱼体波程序\fish_0_100115\11fish.c
 00C5                   .dbsym e Amplitude_degree_tem_init1 _Amplitude_degree_tem_init1 A[8:8]c
 00C5           _Amplitude_degree_tem_init2::
 00C5                   .blkb 1
                        .area idata
 00C5 00                .byte 0
                        .area data(ram, con, rel)
 00C6                   .dbfile G:\wsg\SchoolTrain\FishRobot\机器鱼\机器鱼培训资料\机器鱼培训资料\机器鱼鱼体波程序\fish_0_100115\11fish.c
 00C6                   .blkb 7
                        .area idata
 00C6 00000000000000    .byte 0,0,0,0,0,0,0
                        .area data(ram, con, rel)
 00CD                   .dbfile G:\wsg\SchoolTrain\FishRobot\机器鱼\机器鱼培训资料\机器鱼培训资料\机器鱼鱼体波程序\fish_0_100115\11fish.c
 00CD                   .dbsym e Amplitude_degree_tem_init2 _Amplitude_degree_tem_init2 A[8:8]c
 00CD           _Amplitude_degree_tem_init3::
 00CD                   .blkb 1
                        .area idata
 00CD 00                .byte 0
                        .area data(ram, con, rel)
 00CE                   .dbfile G:\wsg\SchoolTrain\FishRobot\机器鱼\机器鱼培训资料\机器鱼培训资料\机器鱼鱼体波程序\fish_0_100115\11fish.c
 00CE                   .blkb 7
                        .area idata
 00CE 00000000000000    .byte 0,0,0,0,0,0,0
                        .area data(ram, con, rel)
 00D5                   .dbfile G:\wsg\SchoolTrain\FishRobot\机器鱼\机器鱼培训资料\机器鱼培训资料\机器鱼鱼体波程序\fish_0_100115\11fish.c
 00D5                   .dbsym e Amplitude_degree_tem_init3 _Amplitude_degree_tem_init3 A[8:8]c
 00D5           _Amplitude_degree_tem_init4::
 00D5                   .blkb 1
                        .area idata
 00D5 00                .byte 0
                        .area data(ram, con, rel)
 00D6                   .dbfile G:\wsg\SchoolTrain\FishRobot\机器鱼\机器鱼培训资料\机器鱼培训资料\机器鱼鱼体波程序\fish_0_100115\11fish.c
 00D6                   .blkb 7
                        .area idata
 00D6 00000000000000    .byte 0,0,0,0,0,0,0
                        .area data(ram, con, rel)
 00DD                   .dbfile G:\wsg\SchoolTrain\FishRobot\机器鱼\机器鱼培训资料\机器鱼培训资料\机器鱼鱼体波程序\fish_0_100115\11fish.c
 00DD                   .dbsym e Amplitude_degree_tem_init4 _Amplitude_degree_tem_init4 A[8:8]c
 00DD           _Amplitude_degree_tem_init5::
 00DD                   .blkb 1
                        .area idata
 00DD 00                .byte 0
                        .area data(ram, con, rel)
 00DE                   .dbfile G:\wsg\SchoolTrain\FishRobot\机器鱼\机器鱼培训资料\机器鱼培训资料\机器鱼鱼体波程序\fish_0_100115\11fish.c
 00DE                   .blkb 7
                        .area idata
 00DE 00000000000000    .byte 0,0,0,0,0,0,0
                        .area data(ram, con, rel)
 00E5                   .dbfile G:\wsg\SchoolTrain\FishRobot\机器鱼\机器鱼培训资料\机器鱼培训资料\机器鱼鱼体波程序\fish_0_100115\11fish.c
 00E5                   .dbsym e Amplitude_degree_tem_init5 _Amplitude_degree_tem_init5 A[8:8]c
 00E5           _Amplitude_degree_tem_init6::
 00E5                   .blkb 1
                        .area idata
 00E5 00                .byte 0
                        .area data(ram, con, rel)
 00E6                   .dbfile G:\wsg\SchoolTrain\FishRobot\机器鱼\机器鱼培训资料\机器鱼培训资料\机器鱼鱼体波程序\fish_0_100115\11fish.c
 00E6                   .blkb 7
                        .area idata
 00E6 00000000000000    .byte 0,0,0,0,0,0,0
                        .area data(ram, con, rel)
 00ED                   .dbfile G:\wsg\SchoolTrain\FishRobot\机器鱼\机器鱼培训资料\机器鱼培训资料\机器鱼鱼体波程序\fish_0_100115\11fish.c
 00ED                   .dbsym e Amplitude_degree_tem_init6 _Amplitude_degree_tem_init6 A[8:8]c
 00ED           _Amplitude_degree_tem_z::
 00ED                   .blkb 1
                        .area idata
 00ED 00                .byte 0
                        .area data(ram, con, rel)
 00EE                   .dbfile G:\wsg\SchoolTrain\FishRobot\机器鱼\机器鱼培训资料\机器鱼培训资料\机器鱼鱼体波程序\fish_0_100115\11fish.c
 00EE                   .blkb 47
                        .area idata
 00EE 00000000000000000000      .word 0,0,0,0,0
 00F8 00000000000000000000      .word 0,0,0,0,0
 0102 00000000000000000000      .word 0,0,0,0,0
 010C 00000000000000000000      .word 0,0,0,0,0
 0116 00000000000000    .byte 0,0,0,0,0,0,0
                        .area data(ram, con, rel)
 011D                   .dbfile G:\wsg\SchoolTrain\FishRobot\机器鱼\机器鱼培训资料\机器鱼培训资料\机器鱼鱼体波程序\fish_0_100115\11fish.c
 011D                   .dbsym e Amplitude_degree_tem_z _Amplitude_degree_tem_z A[48:48]c
 011D           _Amplitude_degree_tem_z1::
 011D                   .blkb 1
                        .area idata
 011D 00                .byte 0
                        .area data(ram, con, rel)
 011E                   .dbfile G:\wsg\SchoolTrain\FishRobot\机器鱼\机器鱼培训资料\机器鱼培训资料\机器鱼鱼体波程序\fish_0_100115\11fish.c
 011E                   .blkb 7
                        .area idata
 011E 00000000000000    .byte 0,0,0,0,0,0,0
                        .area data(ram, con, rel)
 0125                   .dbfile G:\wsg\SchoolTrain\FishRobot\机器鱼\机器鱼培训资料\机器鱼培训资料\机器鱼鱼体波程序\fish_0_100115\11fish.c
 0125                   .dbsym e Amplitude_degree_tem_z1 _Amplitude_degree_tem_z1 A[8:8]c
 0125           _Amplitude_degree_tem_z2::
 0125                   .blkb 1
                        .area idata
 0125 00                .byte 0
                        .area data(ram, con, rel)
 0126                   .dbfile G:\wsg\SchoolTrain\FishRobot\机器鱼\机器鱼培训资料\机器鱼培训资料\机器鱼鱼体波程序\fish_0_100115\11fish.c
 0126                   .blkb 7
                        .area idata
 0126 00000000000000    .byte 0,0,0,0,0,0,0
                        .area data(ram, con, rel)
 012D                   .dbfile G:\wsg\SchoolTrain\FishRobot\机器鱼\机器鱼培训资料\机器鱼培训资料\机器鱼鱼体波程序\fish_0_100115\11fish.c
 012D                   .dbsym e Amplitude_degree_tem_z2 _Amplitude_degree_tem_z2 A[8:8]c
 012D           _Amplitude_degree_tem_z3::
 012D                   .blkb 1
                        .area idata
 012D 00                .byte 0
                        .area data(ram, con, rel)
 012E                   .dbfile G:\wsg\SchoolTrain\FishRobot\机器鱼\机器鱼培训资料\机器鱼培训资料\机器鱼鱼体波程序\fish_0_100115\11fish.c
 012E                   .blkb 7
                        .area idata
 012E 00000000000000    .byte 0,0,0,0,0,0,0
                        .area data(ram, con, rel)
 0135                   .dbfile G:\wsg\SchoolTrain\FishRobot\机器鱼\机器鱼培训资料\机器鱼培训资料\机器鱼鱼体波程序\fish_0_100115\11fish.c
 0135                   .dbsym e Amplitude_degree_tem_z3 _Amplitude_degree_tem_z3 A[8:8]c
 0135           _Amplitude_degree_tem_z4::
 0135                   .blkb 1
                        .area idata
 0135 00                .byte 0
                        .area data(ram, con, rel)
 0136                   .dbfile G:\wsg\SchoolTrain\FishRobot\机器鱼\机器鱼培训资料\机器鱼培训资料\机器鱼鱼体波程序\fish_0_100115\11fish.c
 0136                   .blkb 7
                        .area idata
 0136 00000000000000    .byte 0,0,0,0,0,0,0
                        .area data(ram, con, rel)
 013D                   .dbfile G:\wsg\SchoolTrain\FishRobot\机器鱼\机器鱼培训资料\机器鱼培训资料\机器鱼鱼体波程序\fish_0_100115\11fish.c
 013D                   .dbsym e Amplitude_degree_tem_z4 _Amplitude_degree_tem_z4 A[8:8]c
 013D           _Amplitude_degree_tem_z5::
 013D                   .blkb 1
                        .area idata
 013D 00                .byte 0
                        .area data(ram, con, rel)
 013E                   .dbfile G:\wsg\SchoolTrain\FishRobot\机器鱼\机器鱼培训资料\机器鱼培训资料\机器鱼鱼体波程序\fish_0_100115\11fish.c
 013E                   .blkb 7
                        .area idata
 013E 00000000000000    .byte 0,0,0,0,0,0,0
                        .area data(ram, con, rel)
 0145                   .dbfile G:\wsg\SchoolTrain\FishRobot\机器鱼\机器鱼培训资料\机器鱼培训资料\机器鱼鱼体波程序\fish_0_100115\11fish.c
 0145                   .dbsym e Amplitude_degree_tem_z5 _Amplitude_degree_tem_z5 A[8:8]c
 0145           _Amplitude_degree_tem_z6::
 0145                   .blkb 1
                        .area idata
 0145 00                .byte 0
                        .area data(ram, con, rel)
 0146                   .dbfile G:\wsg\SchoolTrain\FishRobot\机器鱼\机器鱼培训资料\机器鱼培训资料\机器鱼鱼体波程序\fish_0_100115\11fish.c
 0146                   .blkb 7
                        .area idata
 0146 00000000000000    .byte 0,0,0,0,0,0,0
                        .area data(ram, con, rel)
 014D                   .dbfile G:\wsg\SchoolTrain\FishRobot\机器鱼\机器鱼培训资料\机器鱼培训资料\机器鱼鱼体波程序\fish_0_100115\11fish.c
 014D                   .dbsym e Amplitude_degree_tem_z6 _Amplitude_degree_tem_z6 A[8:8]c
 014D           _Amplitude_degree_tem_I2C1::
 014D                   .blkb 1
                        .area idata
 014D 00                .byte 0
                        .area data(ram, con, rel)
 014E                   .dbfile G:\wsg\SchoolTrain\FishRobot\机器鱼\机器鱼培训资料\机器鱼培训资料\机器鱼鱼体波程序\fish_0_100115\11fish.c
 014E                   .blkb 9
                        .area idata
 014E 000000000000000000        .byte 0,0,0,0,0,0,0,0,0
                        .area data(ram, con, rel)
 0157                   .dbfile G:\wsg\SchoolTrain\FishRobot\机器鱼\机器鱼培训资料\机器鱼培训资料\机器鱼鱼体波程序\fish_0_100115\11fish.c
 0157                   .dbsym e Amplitude_degree_tem_I2C1 _Amplitude_degree_tem_I2C1 A[10:10]c
 0157           _Amplitude_degree_tem_I2C2::
 0157                   .blkb 1
                        .area idata
 0157 00                .byte 0
                        .area data(ram, con, rel)
 0158                   .dbfile G:\wsg\SchoolTrain\FishRobot\机器鱼\机器鱼培训资料\机器鱼培训资料\机器鱼鱼体波程序\fish_0_100115\11fish.c
 0158                   .blkb 9
                        .area idata
 0158 000000000000000000        .byte 0,0,0,0,0,0,0,0,0
                        .area data(ram, con, rel)
 0161                   .dbfile G:\wsg\SchoolTrain\FishRobot\机器鱼\机器鱼培训资料\机器鱼培训资料\机器鱼鱼体波程序\fish_0_100115\11fish.c
 0161                   .dbsym e Amplitude_degree_tem_I2C2 _Amplitude_degree_tem_I2C2 A[10:10]c
 0161           _Amplitude_degree_tem_I2C3::
 0161                   .blkb 1
                        .area idata
 0161 00                .byte 0
                        .area data(ram, con, rel)
 0162                   .dbfile G:\wsg\SchoolTrain\FishRobot\机器鱼\机器鱼培训资料\机器鱼培训资料\机器鱼鱼体波程序\fish_0_100115\11fish.c
 0162                   .blkb 9
                        .area idata
 0162 000000000000000000        .byte 0,0,0,0,0,0,0,0,0
                        .area data(ram, con, rel)
 016B                   .dbfile G:\wsg\SchoolTrain\FishRobot\机器鱼\机器鱼培训资料\机器鱼培训资料\机器鱼鱼体波程序\fish_0_100115\11fish.c
 016B                   .dbsym e Amplitude_degree_tem_I2C3 _Amplitude_degree_tem_I2C3 A[10:10]c
 016B           _Amplitude_degree_tem_I2C4::
 016B                   .blkb 1
                        .area idata
 016B 00                .byte 0
                        .area data(ram, con, rel)
 016C                   .dbfile G:\wsg\SchoolTrain\FishRobot\机器鱼\机器鱼培训资料\机器鱼培训资料\机器鱼鱼体波程序\fish_0_100115\11fish.c
 016C                   .blkb 9
                        .area idata
 016C 000000000000000000        .byte 0,0,0,0,0,0,0,0,0
                        .area data(ram, con, rel)
 0175                   .dbfile G:\wsg\SchoolTrain\FishRobot\机器鱼\机器鱼培训资料\机器鱼培训资料\机器鱼鱼体波程序\fish_0_100115\11fish.c
 0175                   .dbsym e Amplitude_degree_tem_I2C4 _Amplitude_degree_tem_I2C4 A[10:10]c
 0175           _Amplitude_degree_tem_I2C5::
 0175                   .blkb 1
                        .area idata
 0175 00                .byte 0
                        .area data(ram, con, rel)
 0176                   .dbfile G:\wsg\SchoolTrain\FishRobot\机器鱼\机器鱼培训资料\机器鱼培训资料\机器鱼鱼体波程序\fish_0_100115\11fish.c
 0176                   .blkb 9
                        .area idata
 0176 000000000000000000        .byte 0,0,0,0,0,0,0,0,0
                        .area data(ram, con, rel)
 017F                   .dbfile G:\wsg\SchoolTrain\FishRobot\机器鱼\机器鱼培训资料\机器鱼培训资料\机器鱼鱼体波程序\fish_0_100115\11fish.c
 017F                   .dbsym e Amplitude_degree_tem_I2C5 _Amplitude_degree_tem_I2C5 A[10:10]c
 017F           _Amplitude_degree_tem_I2C6::
 017F                   .blkb 1
                        .area idata
 017F 00                .byte 0
                        .area data(ram, con, rel)
 0180                   .dbfile G:\wsg\SchoolTrain\FishRobot\机器鱼\机器鱼培训资料\机器鱼培训资料\机器鱼鱼体波程序\fish_0_100115\11fish.c
 0180                   .blkb 9
                        .area idata
 0180 000000000000000000        .byte 0,0,0,0,0,0,0,0,0
                        .area data(ram, con, rel)
 0189                   .dbfile G:\wsg\SchoolTrain\FishRobot\机器鱼\机器鱼培训资料\机器鱼培训资料\机器鱼鱼体波程序\fish_0_100115\11fish.c
 0189                   .dbsym e Amplitude_degree_tem_I2C6 _Amplitude_degree_tem_I2C6 A[10:10]c
 0189           _Dynamic_Offset_degree_origin_init::
 0189                   .blkb 2
                        .area idata
 0189 3C37              .byte 60,55
                        .area data(ram, con, rel)
 018B                   .dbfile G:\wsg\SchoolTrain\FishRobot\机器鱼\机器鱼培训资料\机器鱼培训资料\机器鱼鱼体波程序\fish_0_100115\11fish.c
 018B                   .blkb 2
                        .area idata
 018B 0030              .byte 0,48
                        .area data(ram, con, rel)
 018D                   .dbfile G:\wsg\SchoolTrain\FishRobot\机器鱼\机器鱼培训资料\机器鱼培训资料\机器鱼鱼体波程序\fish_0_100115\11fish.c
 018D                   .blkb 2
                        .area idata
 018D 2B00              .byte 43,0
                        .area data(ram, con, rel)
 018F                   .dbfile G:\wsg\SchoolTrain\FishRobot\机器鱼\机器鱼培训资料\机器鱼培训资料\机器鱼鱼体波程序\fish_0_100115\11fish.c
 018F                   .blkb 2
                        .area idata
 018F 241F              .byte 36,31
                        .area data(ram, con, rel)
 0191                   .dbfile G:\wsg\SchoolTrain\FishRobot\机器鱼\机器鱼培训资料\机器鱼培训资料\机器鱼鱼体波程序\fish_0_100115\11fish.c
 0191                   .blkb 2
                        .area idata
 0191 001B              .byte 0,27
                        .area data(ram, con, rel)
 0193                   .dbfile G:\wsg\SchoolTrain\FishRobot\机器鱼\机器鱼培训资料\机器鱼培训资料\机器鱼鱼体波程序\fish_0_100115\11fish.c
 0193                   .blkb 2
                        .area idata
 0193 1600              .byte 22,0
                        .area data(ram, con, rel)
 0195                   .dbfile G:\wsg\SchoolTrain\FishRobot\机器鱼\机器鱼培训资料\机器鱼培训资料\机器鱼鱼体波程序\fish_0_100115\11fish.c
 0195                   .blkb 2
                        .area idata
 0195 120D              .byte 18,13
                        .area data(ram, con, rel)
 0197                   .dbfile G:\wsg\SchoolTrain\FishRobot\机器鱼\机器鱼培训资料\机器鱼培训资料\机器鱼鱼体波程序\fish_0_100115\11fish.c
 0197                   .blkb 2
                        .area idata
 0197 0009              .byte 0,9
                        .area data(ram, con, rel)
 0199                   .dbfile G:\wsg\SchoolTrain\FishRobot\机器鱼\机器鱼培训资料\机器鱼培训资料\机器鱼鱼体波程序\fish_0_100115\11fish.c
 0199                   .blkb 2
                        .area idata
 0199 0400              .byte 4,0
                        .area data(ram, con, rel)
 019B                   .dbfile G:\wsg\SchoolTrain\FishRobot\机器鱼\机器鱼培训资料\机器鱼培训资料\机器鱼鱼体波程序\fish_0_100115\11fish.c
 019B                   .blkb 2
                        .area idata
 019B 0601              .byte 6,1
                        .area data(ram, con, rel)
 019D                   .dbfile G:\wsg\SchoolTrain\FishRobot\机器鱼\机器鱼培训资料\机器鱼培训资料\机器鱼鱼体波程序\fish_0_100115\11fish.c
 019D                   .blkb 2
                        .area idata
 019D 0000              .byte 0,0
                        .area data(ram, con, rel)
 019F                   .dbfile G:\wsg\SchoolTrain\FishRobot\机器鱼\机器鱼培训资料\机器鱼培训资料\机器鱼鱼体波程序\fish_0_100115\11fish.c
 019F                   .blkb 2
                        .area idata
 019F 0000              .byte 0,0
                        .area data(ram, con, rel)
 01A1                   .dbfile G:\wsg\SchoolTrain\FishRobot\机器鱼\机器鱼培训资料\机器鱼培训资料\机器鱼鱼体波程序\fish_0_100115\11fish.c
 01A1                   .dbsym e Dynamic_Offset_degree_origin_init _Dynamic_Offset_degree_origin_init A[24:24]c
 01A1           _Dynamic_Offset_degree_origin_init1::
 01A1                   .blkb 1
                        .area idata
 01A1 00                .byte 0
                        .area data(ram, con, rel)
 01A2                   .dbfile G:\wsg\SchoolTrain\FishRobot\机器鱼\机器鱼培训资料\机器鱼培训资料\机器鱼鱼体波程序\fish_0_100115\11fish.c
 01A2                   .blkb 7
                        .area idata
 01A2 00000000000000    .byte 0,0,0,0,0,0,0
                        .area data(ram, con, rel)
 01A9                   .dbfile G:\wsg\SchoolTrain\FishRobot\机器鱼\机器鱼培训资料\机器鱼培训资料\机器鱼鱼体波程序\fish_0_100115\11fish.c
 01A9                   .dbsym e Dynamic_Offset_degree_origin_init1 _Dynamic_Offset_degree_origin_init1 A[8:8]c
 01A9           _Dynamic_Offset_degree_origin_init2::
 01A9                   .blkb 1
                        .area idata
 01A9 00                .byte 0
                        .area data(ram, con, rel)
 01AA                   .dbfile G:\wsg\SchoolTrain\FishRobot\机器鱼\机器鱼培训资料\机器鱼培训资料\机器鱼鱼体波程序\fish_0_100115\11fish.c
 01AA                   .blkb 7
                        .area idata
 01AA 00000000000000    .byte 0,0,0,0,0,0,0
                        .area data(ram, con, rel)
 01B1                   .dbfile G:\wsg\SchoolTrain\FishRobot\机器鱼\机器鱼培训资料\机器鱼培训资料\机器鱼鱼体波程序\fish_0_100115\11fish.c
 01B1                   .dbsym e Dynamic_Offset_degree_origin_init2 _Dynamic_Offset_degree_origin_init2 A[8:8]c
 01B1           _Dynamic_Offset_degree_origin_init3::
 01B1                   .blkb 1
                        .area idata
 01B1 00                .byte 0
                        .area data(ram, con, rel)
 01B2                   .dbfile G:\wsg\SchoolTrain\FishRobot\机器鱼\机器鱼培训资料\机器鱼培训资料\机器鱼鱼体波程序\fish_0_100115\11fish.c
 01B2                   .blkb 7
                        .area idata
 01B2 00000000000000    .byte 0,0,0,0,0,0,0
                        .area data(ram, con, rel)
 01B9                   .dbfile G:\wsg\SchoolTrain\FishRobot\机器鱼\机器鱼培训资料\机器鱼培训资料\机器鱼鱼体波程序\fish_0_100115\11fish.c
 01B9                   .dbsym e Dynamic_Offset_degree_origin_init3 _Dynamic_Offset_degree_origin_init3 A[8:8]c
 01B9           _Dynamic_Offset_degree_origin_z::
 01B9                   .blkb 1
                        .area idata
 01B9 00                .byte 0
                        .area data(ram, con, rel)
 01BA                   .dbfile G:\wsg\SchoolTrain\FishRobot\机器鱼\机器鱼培训资料\机器鱼培训资料\机器鱼鱼体波程序\fish_0_100115\11fish.c
 01BA                   .blkb 23
                        .area idata
 01BA 00000000000000000000      .word 0,0,0,0,0
 01C4 00000000000000000000      .word 0,0,0,0,0
 01CE 000000            .byte 0,0,0
                        .area data(ram, con, rel)
 01D1                   .dbfile G:\wsg\SchoolTrain\FishRobot\机器鱼\机器鱼培训资料\机器鱼培训资料\机器鱼鱼体波程序\fish_0_100115\11fish.c
 01D1                   .dbsym e Dynamic_Offset_degree_origin_z _Dynamic_Offset_degree_origin_z A[24:24]c
 01D1           _Dynamic_Offset_degree_origin_z1::
 01D1                   .blkb 1
                        .area idata
 01D1 00                .byte 0
                        .area data(ram, con, rel)
 01D2                   .dbfile G:\wsg\SchoolTrain\FishRobot\机器鱼\机器鱼培训资料\机器鱼培训资料\机器鱼鱼体波程序\fish_0_100115\11fish.c
 01D2                   .blkb 7
                        .area idata
 01D2 00000000000000    .byte 0,0,0,0,0,0,0
                        .area data(ram, con, rel)
 01D9                   .dbfile G:\wsg\SchoolTrain\FishRobot\机器鱼\机器鱼培训资料\机器鱼培训资料\机器鱼鱼体波程序\fish_0_100115\11fish.c
 01D9                   .dbsym e Dynamic_Offset_degree_origin_z1 _Dynamic_Offset_degree_origin_z1 A[8:8]c
 01D9           _Dynamic_Offset_degree_origin_z2::
 01D9                   .blkb 1
                        .area idata
 01D9 00                .byte 0
                        .area data(ram, con, rel)
 01DA                   .dbfile G:\wsg\SchoolTrain\FishRobot\机器鱼\机器鱼培训资料\机器鱼培训资料\机器鱼鱼体波程序\fish_0_100115\11fish.c
 01DA                   .blkb 7
                        .area idata
 01DA 00000000000000    .byte 0,0,0,0,0,0,0
                        .area data(ram, con, rel)
 01E1                   .dbfile G:\wsg\SchoolTrain\FishRobot\机器鱼\机器鱼培训资料\机器鱼培训资料\机器鱼鱼体波程序\fish_0_100115\11fish.c
 01E1                   .dbsym e Dynamic_Offset_degree_origin_z2 _Dynamic_Offset_degree_origin_z2 A[8:8]c
 01E1           _Dynamic_Offset_degree_origin_z3::
 01E1                   .blkb 1
                        .area idata
 01E1 00                .byte 0
                        .area data(ram, con, rel)
 01E2                   .dbfile G:\wsg\SchoolTrain\FishRobot\机器鱼\机器鱼培训资料\机器鱼培训资料\机器鱼鱼体波程序\fish_0_100115\11fish.c
 01E2                   .blkb 7
                        .area idata
 01E2 00000000000000    .byte 0,0,0,0,0,0,0
                        .area data(ram, con, rel)
 01E9                   .dbfile G:\wsg\SchoolTrain\FishRobot\机器鱼\机器鱼培训资料\机器鱼培训资料\机器鱼鱼体波程序\fish_0_100115\11fish.c
 01E9                   .dbsym e Dynamic_Offset_degree_origin_z3 _Dynamic_Offset_degree_origin_z3 A[8:8]c
 01E9           _Dynamic_Offset_degree_origin_I2C1::
 01E9                   .blkb 1
                        .area idata
 01E9 00                .byte 0
                        .area data(ram, con, rel)
 01EA                   .dbfile G:\wsg\SchoolTrain\FishRobot\机器鱼\机器鱼培训资料\机器鱼培训资料\机器鱼鱼体波程序\fish_0_100115\11fish.c
 01EA                   .blkb 9
                        .area idata
 01EA 000000000000000000        .byte 0,0,0,0,0,0,0,0,0
                        .area data(ram, con, rel)
 01F3                   .dbfile G:\wsg\SchoolTrain\FishRobot\机器鱼\机器鱼培训资料\机器鱼培训资料\机器鱼鱼体波程序\fish_0_100115\11fish.c
 01F3                   .dbsym e Dynamic_Offset_degree_origin_I2C1 _Dynamic_Offset_degree_origin_I2C1 A[10:10]c
 01F3           _Dynamic_Offset_degree_origin_I2C2::
 01F3                   .blkb 1
                        .area idata
 01F3 00                .byte 0
                        .area data(ram, con, rel)
 01F4                   .dbfile G:\wsg\SchoolTrain\FishRobot\机器鱼\机器鱼培训资料\机器鱼培训资料\机器鱼鱼体波程序\fish_0_100115\11fish.c
 01F4                   .blkb 9
                        .area idata
 01F4 000000000000000000        .byte 0,0,0,0,0,0,0,0,0
                        .area data(ram, con, rel)
 01FD                   .dbfile G:\wsg\SchoolTrain\FishRobot\机器鱼\机器鱼培训资料\机器鱼培训资料\机器鱼鱼体波程序\fish_0_100115\11fish.c
 01FD                   .dbsym e Dynamic_Offset_degree_origin_I2C2 _Dynamic_Offset_degree_origin_I2C2 A[10:10]c
 01FD           _Dynamic_Offset_degree_origin_I2C3::
 01FD                   .blkb 1
                        .area idata
 01FD 00                .byte 0
                        .area data(ram, con, rel)
 01FE                   .dbfile G:\wsg\SchoolTrain\FishRobot\机器鱼\机器鱼培训资料\机器鱼培训资料\机器鱼鱼体波程序\fish_0_100115\11fish.c
 01FE                   .blkb 9
                        .area idata
 01FE 000000000000000000        .byte 0,0,0,0,0,0,0,0,0
                        .area data(ram, con, rel)
 0207                   .dbfile G:\wsg\SchoolTrain\FishRobot\机器鱼\机器鱼培训资料\机器鱼培训资料\机器鱼鱼体波程序\fish_0_100115\11fish.c
 0207                   .dbsym e Dynamic_Offset_degree_origin_I2C3 _Dynamic_Offset_degree_origin_I2C3 A[10:10]c
 0207           _isSrlStart::
 0207                   .blkb 1
                        .area idata
 0207 00                .byte 0
                        .area data(ram, con, rel)
 0208                   .dbfile G:\wsg\SchoolTrain\FishRobot\机器鱼\机器鱼培训资料\机器鱼培训资料\机器鱼鱼体波程序\fish_0_100115\11fish.c
 0208                   .dbsym e isSrlStart _isSrlStart c
 0208           _isSrlStartI2c::
 0208                   .blkb 1
                        .area idata
 0208 00                .byte 0
                        .area data(ram, con, rel)
 0209                   .dbfile G:\wsg\SchoolTrain\FishRobot\机器鱼\机器鱼培训资料\机器鱼培训资料\机器鱼鱼体波程序\fish_0_100115\11fish.c
 0209                   .dbsym e isSrlStartI2c _isSrlStartI2c c
 0209           _addr::
 0209                   .blkb 1
                        .area idata
 0209 00                .byte 0
                        .area data(ram, con, rel)
 020A                   .dbfile G:\wsg\SchoolTrain\FishRobot\机器鱼\机器鱼培训资料\机器鱼培训资料\机器鱼鱼体波程序\fish_0_100115\11fish.c
 020A                   .dbsym e addr _addr c
 020A           _addrI2c::
 020A                   .blkb 1
                        .area idata
 020A 00                .byte 0
                        .area data(ram, con, rel)
 020B                   .dbfile G:\wsg\SchoolTrain\FishRobot\机器鱼\机器鱼培训资料\机器鱼培训资料\机器鱼鱼体波程序\fish_0_100115\11fish.c
 020B                   .dbsym e addrI2c _addrI2c c
 020B           _s_change::
 020B                   .blkb 1
                        .area idata
 020B 00                .byte 0
                        .area data(ram, con, rel)
 020C                   .dbfile G:\wsg\SchoolTrain\FishRobot\机器鱼\机器鱼培训资料\机器鱼培训资料\机器鱼鱼体波程序\fish_0_100115\11fish.c
 020C                   .dbsym e s_change _s_change c
 020C           _d_change::
 020C                   .blkb 1
                        .area idata
 020C 00                .byte 0
                        .area data(ram, con, rel)
 020D                   .dbfile G:\wsg\SchoolTrain\FishRobot\机器鱼\机器鱼培训资料\机器鱼培训资料\机器鱼鱼体波程序\fish_0_100115\11fish.c
 020D                   .dbsym e d_change _d_change c
 020D           _d_change_t::
 020D                   .blkb 1
                        .area idata
 020D 00                .byte 0
                        .area data(ram, con, rel)
 020E                   .dbfile G:\wsg\SchoolTrain\FishRobot\机器鱼\机器鱼培训资料\机器鱼培训资料\机器鱼鱼体波程序\fish_0_100115\11fish.c
 020E                   .dbsym e d_change_t _d_change_t c
 020E           _d_change_t_v::
 020E                   .blkb 1
                        .area idata
 020E 00                .byte 0
                        .area data(ram, con, rel)
 020F                   .dbfile G:\wsg\SchoolTrain\FishRobot\机器鱼\机器鱼培训资料\机器鱼培训资料\机器鱼鱼体波程序\fish_0_100115\11fish.c
 020F                   .dbsym e d_change_t_v _d_change_t_v c
 020F           _t_change::
 020F                   .blkb 1
                        .area idata
 020F 00                .byte 0
                        .area data(ram, con, rel)
 0210                   .dbfile G:\wsg\SchoolTrain\FishRobot\机器鱼\机器鱼培训资料\机器鱼培训资料\机器鱼鱼体波程序\fish_0_100115\11fish.c
 0210                   .dbsym e t_change _t_change c
 0210           _ts_change::
 0210                   .blkb 1
                        .area idata
 0210 00                .byte 0
                        .area data(ram, con, rel)
 0211                   .dbfile G:\wsg\SchoolTrain\FishRobot\机器鱼\机器鱼培训资料\机器鱼培训资料\机器鱼鱼体波程序\fish_0_100115\11fish.c
 0211                   .dbsym e ts_change _ts_change c
 0211           _a_change::
 0211                   .blkb 1
                        .area idata
 0211 00                .byte 0
                        .area data(ram, con, rel)
 0212                   .dbfile G:\wsg\SchoolTrain\FishRobot\机器鱼\机器鱼培训资料\机器鱼培训资料\机器鱼鱼体波程序\fish_0_100115\11fish.c
 0212                   .dbsym e a_change _a_change c
 0212           _f_change::
 0212                   .blkb 1
                        .area idata
 0212 00                .byte 0
                        .area data(ram, con, rel)
 0213                   .dbfile G:\wsg\SchoolTrain\FishRobot\机器鱼\机器鱼培训资料\机器鱼培训资料\机器鱼鱼体波程序\fish_0_100115\11fish.c
 0213                   .dbsym e f_change _f_change c
 0213           _id_change::
 0213                   .blkb 1
                        .area idata
 0213 00                .byte 0
                        .area data(ram, con, rel)
 0214                   .dbfile G:\wsg\SchoolTrain\FishRobot\机器鱼\机器鱼培训资料\机器鱼培训资料\机器鱼鱼体波程序\fish_0_100115\11fish.c
 0214                   .dbsym e id_change _id_change c
 0214           _e_change::
 0214                   .blkb 1
                        .area idata
 0214 00                .byte 0
                        .area data(ram, con, rel)
 0215                   .dbfile G:\wsg\SchoolTrain\FishRobot\机器鱼\机器鱼培训资料\机器鱼培训资料\机器鱼鱼体波程序\fish_0_100115\11fish.c
 0215                   .dbsym e e_change _e_change c
 0215           _i_change::
 0215                   .blkb 1
                        .area idata
 0215 00                .byte 0
                        .area data(ram, con, rel)
 0216                   .dbfile G:\wsg\SchoolTrain\FishRobot\机器鱼\机器鱼培训资料\机器鱼培训资料\机器鱼鱼体波程序\fish_0_100115\11fish.c
 0216                   .dbsym e i_change _i_change c
 0216           _i2c_change::
 0216                   .blkb 1
                        .area idata
 0216 00                .byte 0
                        .area data(ram, con, rel)
 0217                   .dbfile G:\wsg\SchoolTrain\FishRobot\机器鱼\机器鱼培训资料\机器鱼培训资料\机器鱼鱼体波程序\fish_0_100115\11fish.c
 0217                   .dbsym e i2c_change _i2c_change c
 0217           _isInstruction::
 0217                   .blkb 1
                        .area idata
 0217 00                .byte 0
                        .area data(ram, con, rel)
 0218                   .dbfile G:\wsg\SchoolTrain\FishRobot\机器鱼\机器鱼培训资料\机器鱼培训资料\机器鱼鱼体波程序\fish_0_100115\11fish.c
 0218                   .dbsym e isInstruction _isInstruction c
 0218           _isInstructionI2c::
 0218                   .blkb 1
                        .area idata
 0218 00                .byte 0
                        .area data(ram, con, rel)
 0219                   .dbfile G:\wsg\SchoolTrain\FishRobot\机器鱼\机器鱼培训资料\机器鱼培训资料\机器鱼鱼体波程序\fish_0_100115\11fish.c
 0219                   .dbsym e isInstructionI2c _isInstructionI2c c
 0219           _is_uart::
 0219                   .blkb 1
                        .area idata
 0219 01                .byte 1
                        .area data(ram, con, rel)
 021A                   .dbfile G:\wsg\SchoolTrain\FishRobot\机器鱼\机器鱼培训资料\机器鱼培训资料\机器鱼鱼体波程序\fish_0_100115\11fish.c
 021A                   .dbsym e is_uart _is_uart c
 021A           _m_change::
 021A                   .blkb 1
                        .area idata
 021A 00                .byte 0
                        .area data(ram, con, rel)
 021B                   .dbfile G:\wsg\SchoolTrain\FishRobot\机器鱼\机器鱼培训资料\机器鱼培训资料\机器鱼鱼体波程序\fish_0_100115\11fish.c
 021B                   .dbsym e m_change _m_change c
 021B           _m_cishu::
 021B                   .blkb 1
                        .area idata
 021B 00                .byte 0
                        .area data(ram, con, rel)
 021C                   .dbfile G:\wsg\SchoolTrain\FishRobot\机器鱼\机器鱼培训资料\机器鱼培训资料\机器鱼鱼体波程序\fish_0_100115\11fish.c
 021C                   .dbsym e m_cishu _m_cishu c
 021C           _mm_cishu::
 021C                   .blkb 1
                        .area idata
 021C 00                .byte 0
                        .area data(ram, con, rel)
 021D                   .dbfile G:\wsg\SchoolTrain\FishRobot\机器鱼\机器鱼培训资料\机器鱼培训资料\机器鱼鱼体波程序\fish_0_100115\11fish.c
 021D                   .dbsym e mm_cishu _mm_cishu c
 021D           _mmm_cishu::
 021D                   .blkb 1
                        .area idata
 021D 0F                .byte 15
                        .area data(ram, con, rel)
 021E                   .dbfile G:\wsg\SchoolTrain\FishRobot\机器鱼\机器鱼培训资料\机器鱼培训资料\机器鱼鱼体波程序\fish_0_100115\11fish.c
 021E                   .dbsym e mmm_cishu _mmm_cishu c
 021E           _a_cishu::
 021E                   .blkb 1
                        .area idata
 021E 00                .byte 0
                        .area data(ram, con, rel)
 021F                   .dbfile G:\wsg\SchoolTrain\FishRobot\机器鱼\机器鱼培训资料\机器鱼培训资料\机器鱼鱼体波程序\fish_0_100115\11fish.c
 021F                   .dbsym e a_cishu _a_cishu c
 021F           _aa_cishu::
 021F                   .blkb 1
                        .area idata
 021F 00                .byte 0
                        .area data(ram, con, rel)
 0220                   .dbfile G:\wsg\SchoolTrain\FishRobot\机器鱼\机器鱼培训资料\机器鱼培训资料\机器鱼鱼体波程序\fish_0_100115\11fish.c
 0220                   .dbsym e aa_cishu _aa_cishu c
 0220           _aaa_cishu::
 0220                   .blkb 1
                        .area idata
 0220 0F                .byte 15
                        .area data(ram, con, rel)
 0221                   .dbfile G:\wsg\SchoolTrain\FishRobot\机器鱼\机器鱼培训资料\机器鱼培训资料\机器鱼鱼体波程序\fish_0_100115\11fish.c
 0221                   .dbsym e aaa_cishu _aaa_cishu c
 0221           _cishu::
 0221                   .blkb 1
                        .area idata
 0221 00                .byte 0
                        .area data(ram, con, rel)
 0222                   .dbfile G:\wsg\SchoolTrain\FishRobot\机器鱼\机器鱼培训资料\机器鱼培训资料\机器鱼鱼体波程序\fish_0_100115\11fish.c
 0222                   .dbsym e cishu _cishu c
 0222           _auto_cishu::
 0222                   .blkb 1
                        .area idata
 0222 00                .byte 0
                        .area data(ram, con, rel)
 0223                   .dbfile G:\wsg\SchoolTrain\FishRobot\机器鱼\机器鱼培训资料\机器鱼培训资料\机器鱼鱼体波程序\fish_0_100115\11fish.c
 0223                   .dbsym e auto_cishu _auto_cishu c
 0223           _y_change::
 0223                   .blkb 1
                        .area idata
 0223 00                .byte 0
                        .area data(ram, con, rel)
 0224                   .dbfile G:\wsg\SchoolTrain\FishRobot\机器鱼\机器鱼培训资料\机器鱼培训资料\机器鱼鱼体波程序\fish_0_100115\11fish.c
 0224                   .dbsym e y_change _y_change c
 0224           _y_changing::
 0224                   .blkb 1
                        .area idata
 0224 00                .byte 0
                        .area data(ram, con, rel)
 0225                   .dbfile G:\wsg\SchoolTrain\FishRobot\机器鱼\机器鱼培训资料\机器鱼培训资料\机器鱼鱼体波程序\fish_0_100115\11fish.c
 0225                   .dbsym e y_changing _y_changing c
 0225           _yy_time::
 0225                   .blkb 1
                        .area idata
 0225 FF                .byte 255
                        .area data(ram, con, rel)
 0226                   .dbfile G:\wsg\SchoolTrain\FishRobot\机器鱼\机器鱼培训资料\机器鱼培训资料\机器鱼鱼体波程序\fish_0_100115\11fish.c
 0226                   .dbsym e yy_time _yy_time c
 0226           _y_cishu::
 0226                   .blkb 1
                        .area idata
 0226 00                .byte 0
                        .area data(ram, con, rel)
 0227                   .dbfile G:\wsg\SchoolTrain\FishRobot\机器鱼\机器鱼培训资料\机器鱼培训资料\机器鱼鱼体波程序\fish_0_100115\11fish.c
 0227                   .dbsym e y_cishu _y_cishu c
 0227           _yy_cishu::
 0227                   .blkb 1
                        .area idata
 0227 00                .byte 0
                        .area data(ram, con, rel)
 0228                   .dbfile G:\wsg\SchoolTrain\FishRobot\机器鱼\机器鱼培训资料\机器鱼培训资料\机器鱼鱼体波程序\fish_0_100115\11fish.c
 0228                   .dbsym e yy_cishu _yy_cishu c
 0228           _yyy_cishu::
 0228                   .blkb 1
                        .area idata
 0228 01                .byte 1
                        .area data(ram, con, rel)
 0229                   .dbfile G:\wsg\SchoolTrain\FishRobot\机器鱼\机器鱼培训资料\机器鱼培训资料\机器鱼鱼体波程序\fish_0_100115\11fish.c
 0229                   .dbsym e yyy_cishu _yyy_cishu c
 0229           _cishu_y::
 0229                   .blkb 1
                        .area idata
 0229 00                .byte 0
                        .area data(ram, con, rel)
 022A                   .dbfile G:\wsg\SchoolTrain\FishRobot\机器鱼\机器鱼培训资料\机器鱼培训资料\机器鱼鱼体波程序\fish_0_100115\11fish.c
 022A                   .dbsym e cishu_y _cishu_y c
 022A           _y_tem::
 022A                   .blkb 1
                        .area idata
 022A 00                .byte 0
                        .area data(ram, con, rel)
 022B                   .dbfile G:\wsg\SchoolTrain\FishRobot\机器鱼\机器鱼培训资料\机器鱼培训资料\机器鱼鱼体波程序\fish_0_100115\11fish.c
 022B                   .dbsym e y_tem _y_tem c
 022B           _y_speed::
 022B                   .blkb 1
                        .area idata
 022B 00                .byte 0
                        .area data(ram, con, rel)
 022C                   .dbfile G:\wsg\SchoolTrain\FishRobot\机器鱼\机器鱼培训资料\机器鱼培训资料\机器鱼鱼体波程序\fish_0_100115\11fish.c
 022C                   .dbsym e y_speed _y_speed c
 022C           _s_tem::
 022C                   .blkb 1
                        .area idata
 022C 00                .byte 0
                        .area data(ram, con, rel)
 022D                   .dbfile G:\wsg\SchoolTrain\FishRobot\机器鱼\机器鱼培训资料\机器鱼培训资料\机器鱼鱼体波程序\fish_0_100115\11fish.c
 022D                   .dbsym e s_tem _s_tem c
 022D           _m_tem::
 022D                   .blkb 1
                        .area idata
 022D 00                .byte 0
                        .area data(ram, con, rel)
 022E                   .dbfile G:\wsg\SchoolTrain\FishRobot\机器鱼\机器鱼培训资料\机器鱼培训资料\机器鱼鱼体波程序\fish_0_100115\11fish.c
 022E                   .dbsym e m_tem _m_tem c
 022E           _d_tem::
 022E                   .blkb 1
                        .area idata
 022E 00                .byte 0
                        .area data(ram, con, rel)
 022F                   .dbfile G:\wsg\SchoolTrain\FishRobot\机器鱼\机器鱼培训资料\机器鱼培训资料\机器鱼鱼体波程序\fish_0_100115\11fish.c
 022F                   .dbsym e d_tem _d_tem c
 022F           _dd_tem::
 022F                   .blkb 1
                        .area idata
 022F 00                .byte 0
                        .area data(ram, con, rel)
 0230                   .dbfile G:\wsg\SchoolTrain\FishRobot\机器鱼\机器鱼培训资料\机器鱼培训资料\机器鱼鱼体波程序\fish_0_100115\11fish.c
 0230                   .dbsym e dd_tem _dd_tem c
 0230           _flag::
 0230                   .blkb 1
                        .area idata
 0230 00                .byte 0
                        .area data(ram, con, rel)
 0231                   .dbfile G:\wsg\SchoolTrain\FishRobot\机器鱼\机器鱼培训资料\机器鱼培训资料\机器鱼鱼体波程序\fish_0_100115\11fish.c
 0231                   .dbsym e flag _flag c
 0231           _i2c_canshu::
 0231                   .blkb 1
                        .area idata
 0231 00                .byte 0
                        .area data(ram, con, rel)
 0232                   .dbfile G:\wsg\SchoolTrain\FishRobot\机器鱼\机器鱼培训资料\机器鱼培训资料\机器鱼鱼体波程序\fish_0_100115\11fish.c
 0232                   .dbsym e i2c_canshu _i2c_canshu c
 0232           _freq::
 0232                   .blkb 2
                        .area idata
 0232 FFF7              .byte 255,247
                        .area data(ram, con, rel)
 0234                   .dbfile G:\wsg\SchoolTrain\FishRobot\机器鱼\机器鱼培训资料\机器鱼培训资料\机器鱼鱼体波程序\fish_0_100115\11fish.c
 0234                   .blkb 2
                        .area idata
 0234 EFDF              .byte 239,223
                        .area data(ram, con, rel)
 0236                   .dbfile G:\wsg\SchoolTrain\FishRobot\机器鱼\机器鱼培训资料\机器鱼培训资料\机器鱼鱼体波程序\fish_0_100115\11fish.c
 0236                   .dbsym e freq _freq A[4:4]c
 0236           _Speed_tem::
 0236                   .blkb 2
                        .area idata
 0236 00FF              .byte 0,255
                        .area data(ram, con, rel)
 0238                   .dbfile G:\wsg\SchoolTrain\FishRobot\机器鱼\机器鱼培训资料\机器鱼培训资料\机器鱼鱼体波程序\fish_0_100115\11fish.c
 0238                   .blkb 2
                        .area idata
 0238 F0E1              .byte 240,225
                        .area data(ram, con, rel)
 023A                   .dbfile G:\wsg\SchoolTrain\FishRobot\机器鱼\机器鱼培训资料\机器鱼培训资料\机器鱼鱼体波程序\fish_0_100115\11fish.c
 023A                   .blkb 2
                        .area idata
 023A D2C3              .byte 210,195
                        .area data(ram, con, rel)
 023C                   .dbfile G:\wsg\SchoolTrain\FishRobot\机器鱼\机器鱼培训资料\机器鱼培训资料\机器鱼鱼体波程序\fish_0_100115\11fish.c
 023C                   .blkb 2
                        .area idata
 023C B4A5              .byte 180,165
                        .area data(ram, con, rel)
 023E                   .dbfile G:\wsg\SchoolTrain\FishRobot\机器鱼\机器鱼培训资料\机器鱼培训资料\机器鱼鱼体波程序\fish_0_100115\11fish.c
 023E                   .blkb 2
                        .area idata
 023E 9687              .byte 150,135
                        .area data(ram, con, rel)
 0240                   .dbfile G:\wsg\SchoolTrain\FishRobot\机器鱼\机器鱼培训资料\机器鱼培训资料\机器鱼鱼体波程序\fish_0_100115\11fish.c
 0240                   .blkb 2
                        .area idata
 0240 7869              .byte 'x,'i
                        .area data(ram, con, rel)
 0242                   .dbfile G:\wsg\SchoolTrain\FishRobot\机器鱼\机器鱼培训资料\机器鱼培训资料\机器鱼鱼体波程序\fish_0_100115\11fish.c
 0242                   .blkb 2
                        .area idata
 0242 5A4B              .byte 'Z,'K
                        .area data(ram, con, rel)
 0244                   .dbfile G:\wsg\SchoolTrain\FishRobot\机器鱼\机器鱼培训资料\机器鱼培训资料\机器鱼鱼体波程序\fish_0_100115\11fish.c
 0244                   .blkb 2
                        .area idata
 0244 3C2D              .byte 60,45
                        .area data(ram, con, rel)
 0246                   .dbfile G:\wsg\SchoolTrain\FishRobot\机器鱼\机器鱼培训资料\机器鱼培训资料\机器鱼鱼体波程序\fish_0_100115\11fish.c
 0246                   .dbsym e Speed_tem _Speed_tem A[16:16]c
 0246           _Dynamic_Offset_degree_origin::
 0246                   .blkb 2
                        .area idata
 0246 3C37              .byte 60,55
                        .area data(ram, con, rel)
 0248                   .dbfile G:\wsg\SchoolTrain\FishRobot\机器鱼\机器鱼培训资料\机器鱼培训资料\机器鱼鱼体波程序\fish_0_100115\11fish.c
 0248                   .blkb 1
                        .area idata
 0248 00                .byte 0
                        .area data(ram, con, rel)
 0249                   .dbfile G:\wsg\SchoolTrain\FishRobot\机器鱼\机器鱼培训资料\机器鱼培训资料\机器鱼鱼体波程序\fish_0_100115\11fish.c
 0249                   .blkb 2
                        .area idata
 0249 3631              .byte 54,49
                        .area data(ram, con, rel)
 024B                   .dbfile G:\wsg\SchoolTrain\FishRobot\机器鱼\机器鱼培训资料\机器鱼培训资料\机器鱼鱼体波程序\fish_0_100115\11fish.c
 024B                   .blkb 1
                        .area idata
 024B 00                .byte 0
                        .area data(ram, con, rel)
 024C                   .dbfile G:\wsg\SchoolTrain\FishRobot\机器鱼\机器鱼培训资料\机器鱼培训资料\机器鱼鱼体波程序\fish_0_100115\11fish.c
 024C                   .blkb 2
                        .area idata
 024C 302B              .byte 48,43
                        .area data(ram, con, rel)
 024E                   .dbfile G:\wsg\SchoolTrain\FishRobot\机器鱼\机器鱼培训资料\机器鱼培训资料\机器鱼鱼体波程序\fish_0_100115\11fish.c
 024E                   .blkb 1
                        .area idata
 024E 00                .byte 0
                        .area data(ram, con, rel)
 024F                   .dbfile G:\wsg\SchoolTrain\FishRobot\机器鱼\机器鱼培训资料\机器鱼培训资料\机器鱼鱼体波程序\fish_0_100115\11fish.c
 024F                   .blkb 2
                        .area idata
 024F 2A25              .byte 42,37
                        .area data(ram, con, rel)
 0251                   .dbfile G:\wsg\SchoolTrain\FishRobot\机器鱼\机器鱼培训资料\机器鱼培训资料\机器鱼鱼体波程序\fish_0_100115\11fish.c
 0251                   .blkb 1
                        .area idata
 0251 00                .byte 0
                        .area data(ram, con, rel)
 0252                   .dbfile G:\wsg\SchoolTrain\FishRobot\机器鱼\机器鱼培训资料\机器鱼培训资料\机器鱼鱼体波程序\fish_0_100115\11fish.c
 0252                   .blkb 2
                        .area idata
 0252 1E19              .byte 30,25
                        .area data(ram, con, rel)
 0254                   .dbfile G:\wsg\SchoolTrain\FishRobot\机器鱼\机器鱼培训资料\机器鱼培训资料\机器鱼鱼体波程序\fish_0_100115\11fish.c
 0254                   .blkb 1
                        .area idata
 0254 00                .byte 0
                        .area data(ram, con, rel)
 0255                   .dbfile G:\wsg\SchoolTrain\FishRobot\机器鱼\机器鱼培训资料\机器鱼培训资料\机器鱼鱼体波程序\fish_0_100115\11fish.c
 0255                   .blkb 2
                        .area idata
 0255 120D              .byte 18,13
                        .area data(ram, con, rel)
 0257                   .dbfile G:\wsg\SchoolTrain\FishRobot\机器鱼\机器鱼培训资料\机器鱼培训资料\机器鱼鱼体波程序\fish_0_100115\11fish.c
 0257                   .blkb 1
                        .area idata
 0257 00                .byte 0
                        .area data(ram, con, rel)
 0258                   .dbfile G:\wsg\SchoolTrain\FishRobot\机器鱼\机器鱼培训资料\机器鱼培训资料\机器鱼鱼体波程序\fish_0_100115\11fish.c
 0258                   .blkb 2
                        .area idata
 0258 0601              .byte 6,1
                        .area data(ram, con, rel)
 025A                   .dbfile G:\wsg\SchoolTrain\FishRobot\机器鱼\机器鱼培训资料\机器鱼培训资料\机器鱼鱼体波程序\fish_0_100115\11fish.c
 025A                   .blkb 1
                        .area idata
 025A 00                .byte 0
                        .area data(ram, con, rel)
 025B                   .dbfile G:\wsg\SchoolTrain\FishRobot\机器鱼\机器鱼培训资料\机器鱼培训资料\机器鱼鱼体波程序\fish_0_100115\11fish.c
 025B                   .blkb 2
                        .area idata
 025B 0000              .byte 0,0
                        .area data(ram, con, rel)
 025D                   .dbfile G:\wsg\SchoolTrain\FishRobot\机器鱼\机器鱼培训资料\机器鱼培训资料\机器鱼鱼体波程序\fish_0_100115\11fish.c
 025D                   .blkb 1
                        .area idata
 025D 00                .byte 0
                        .area data(ram, con, rel)
 025E                   .dbfile G:\wsg\SchoolTrain\FishRobot\机器鱼\机器鱼培训资料\机器鱼培训资料\机器鱼鱼体波程序\fish_0_100115\11fish.c
 025E                   .dbsym e Dynamic_Offset_degree_origin _Dynamic_Offset_degree_origin A[24:8:3]c
 025E           _Dynamic_Offset_degree_y::
 025E                   .blkb 2
                        .area idata
 025E C4FF              .word -60
                        .area data(ram, con, rel)
 0260                   .dbfile G:\wsg\SchoolTrain\FishRobot\机器鱼\机器鱼培训资料\机器鱼培训资料\机器鱼鱼体波程序\fish_0_100115\11fish.c
 0260                   .blkb 2
                        .area idata
 0260 BFFF              .word -65
                        .area data(ram, con, rel)
 0262                   .dbfile G:\wsg\SchoolTrain\FishRobot\机器鱼\机器鱼培训资料\机器鱼培训资料\机器鱼鱼体波程序\fish_0_100115\11fish.c
 0262                   .blkb 2
                        .area idata
 0262 BAFF              .word -70
                        .area data(ram, con, rel)
 0264                   .dbfile G:\wsg\SchoolTrain\FishRobot\机器鱼\机器鱼培训资料\机器鱼培训资料\机器鱼鱼体波程序\fish_0_100115\11fish.c
 0264                   .blkb 2
                        .area idata
 0264 CAFF              .word -54
                        .area data(ram, con, rel)
 0266                   .dbfile G:\wsg\SchoolTrain\FishRobot\机器鱼\机器鱼培训资料\机器鱼培训资料\机器鱼鱼体波程序\fish_0_100115\11fish.c
 0266                   .blkb 2
                        .area idata
 0266 C5FF              .word -59
                        .area data(ram, con, rel)
 0268                   .dbfile G:\wsg\SchoolTrain\FishRobot\机器鱼\机器鱼培训资料\机器鱼培训资料\机器鱼鱼体波程序\fish_0_100115\11fish.c
 0268                   .blkb 2
                        .area idata
 0268 C0FF              .word -64
                        .area data(ram, con, rel)
 026A                   .dbfile G:\wsg\SchoolTrain\FishRobot\机器鱼\机器鱼培训资料\机器鱼培训资料\机器鱼鱼体波程序\fish_0_100115\11fish.c
 026A                   .blkb 2
                        .area idata
 026A D0FF              .word -48
                        .area data(ram, con, rel)
 026C                   .dbfile G:\wsg\SchoolTrain\FishRobot\机器鱼\机器鱼培训资料\机器鱼培训资料\机器鱼鱼体波程序\fish_0_100115\11fish.c
 026C                   .blkb 2
                        .area idata
 026C CBFF              .word -53
                        .area data(ram, con, rel)
 026E                   .dbfile G:\wsg\SchoolTrain\FishRobot\机器鱼\机器鱼培训资料\机器鱼培训资料\机器鱼鱼体波程序\fish_0_100115\11fish.c
 026E                   .blkb 2
                        .area idata
 026E C6FF              .word -58
                        .area data(ram, con, rel)
 0270                   .dbfile G:\wsg\SchoolTrain\FishRobot\机器鱼\机器鱼培训资料\机器鱼培训资料\机器鱼鱼体波程序\fish_0_100115\11fish.c
 0270                   .blkb 2
                        .area idata
 0270 D6FF              .word -42
                        .area data(ram, con, rel)
 0272                   .dbfile G:\wsg\SchoolTrain\FishRobot\机器鱼\机器鱼培训资料\机器鱼培训资料\机器鱼鱼体波程序\fish_0_100115\11fish.c
 0272                   .blkb 2
                        .area idata
 0272 D1FF              .word -47
                        .area data(ram, con, rel)
 0274                   .dbfile G:\wsg\SchoolTrain\FishRobot\机器鱼\机器鱼培训资料\机器鱼培训资料\机器鱼鱼体波程序\fish_0_100115\11fish.c
 0274                   .blkb 2
                        .area idata
 0274 CCFF              .word -52
                        .area data(ram, con, rel)
 0276                   .dbfile G:\wsg\SchoolTrain\FishRobot\机器鱼\机器鱼培训资料\机器鱼培训资料\机器鱼鱼体波程序\fish_0_100115\11fish.c
 0276                   .blkb 2
                        .area idata
 0276 E2FF              .word -30
                        .area data(ram, con, rel)
 0278                   .dbfile G:\wsg\SchoolTrain\FishRobot\机器鱼\机器鱼培训资料\机器鱼培训资料\机器鱼鱼体波程序\fish_0_100115\11fish.c
 0278                   .blkb 2
                        .area idata
 0278 DDFF              .word -35
                        .area data(ram, con, rel)
 027A                   .dbfile G:\wsg\SchoolTrain\FishRobot\机器鱼\机器鱼培训资料\机器鱼培训资料\机器鱼鱼体波程序\fish_0_100115\11fish.c
 027A                   .blkb 2
                        .area idata
 027A D8FF              .word -40
                        .area data(ram, con, rel)
 027C                   .dbfile G:\wsg\SchoolTrain\FishRobot\机器鱼\机器鱼培训资料\机器鱼培训资料\机器鱼鱼体波程序\fish_0_100115\11fish.c
 027C                   .blkb 2
                        .area idata
 027C EEFF              .word -18
                        .area data(ram, con, rel)
 027E                   .dbfile G:\wsg\SchoolTrain\FishRobot\机器鱼\机器鱼培训资料\机器鱼培训资料\机器鱼鱼体波程序\fish_0_100115\11fish.c
 027E                   .blkb 2
                        .area idata
 027E E9FF              .word -23
                        .area data(ram, con, rel)
 0280                   .dbfile G:\wsg\SchoolTrain\FishRobot\机器鱼\机器鱼培训资料\机器鱼培训资料\机器鱼鱼体波程序\fish_0_100115\11fish.c
 0280                   .blkb 2
                        .area idata
 0280 E4FF              .word -28
                        .area data(ram, con, rel)
 0282                   .dbfile G:\wsg\SchoolTrain\FishRobot\机器鱼\机器鱼培训资料\机器鱼培训资料\机器鱼鱼体波程序\fish_0_100115\11fish.c
 0282                   .blkb 2
                        .area idata
 0282 FAFF              .word -6
                        .area data(ram, con, rel)
 0284                   .dbfile G:\wsg\SchoolTrain\FishRobot\机器鱼\机器鱼培训资料\机器鱼培训资料\机器鱼鱼体波程序\fish_0_100115\11fish.c
 0284                   .blkb 2
                        .area idata
 0284 F5FF              .word -11
                        .area data(ram, con, rel)
 0286                   .dbfile G:\wsg\SchoolTrain\FishRobot\机器鱼\机器鱼培训资料\机器鱼培训资料\机器鱼鱼体波程序\fish_0_100115\11fish.c
 0286                   .blkb 2
                        .area idata
 0286 F0FF              .word -16
                        .area data(ram, con, rel)
 0288                   .dbfile G:\wsg\SchoolTrain\FishRobot\机器鱼\机器鱼培训资料\机器鱼培训资料\机器鱼鱼体波程序\fish_0_100115\11fish.c
 0288                   .blkb 2
                        .area idata
 0288 0000              .word 0
                        .area data(ram, con, rel)
 028A                   .dbfile G:\wsg\SchoolTrain\FishRobot\机器鱼\机器鱼培训资料\机器鱼培训资料\机器鱼鱼体波程序\fish_0_100115\11fish.c
 028A                   .blkb 2
                        .area idata
 028A 0000              .word 0
                        .area data(ram, con, rel)
 028C                   .dbfile G:\wsg\SchoolTrain\FishRobot\机器鱼\机器鱼培训资料\机器鱼培训资料\机器鱼鱼体波程序\fish_0_100115\11fish.c
 028C                   .blkb 2
                        .area idata
 028C 0000              .word 0
                        .area data(ram, con, rel)
 028E                   .dbfile G:\wsg\SchoolTrain\FishRobot\机器鱼\机器鱼培训资料\机器鱼培训资料\机器鱼鱼体波程序\fish_0_100115\11fish.c
 028E                   .blkb 2
                        .area idata
 028E 0600              .word 6
                        .area data(ram, con, rel)
 0290                   .dbfile G:\wsg\SchoolTrain\FishRobot\机器鱼\机器鱼培训资料\机器鱼培训资料\机器鱼鱼体波程序\fish_0_100115\11fish.c
 0290                   .blkb 2
                        .area idata
 0290 0100              .word 1
                        .area data(ram, con, rel)
 0292                   .dbfile G:\wsg\SchoolTrain\FishRobot\机器鱼\机器鱼培训资料\机器鱼培训资料\机器鱼鱼体波程序\fish_0_100115\11fish.c
 0292                   .blkb 2
                        .area idata
 0292 FCFF              .word -4
                        .area data(ram, con, rel)
 0294                   .dbfile G:\wsg\SchoolTrain\FishRobot\机器鱼\机器鱼培训资料\机器鱼培训资料\机器鱼鱼体波程序\fish_0_100115\11fish.c
 0294                   .blkb 2
                        .area idata
 0294 0C00              .word 12
                        .area data(ram, con, rel)
 0296                   .dbfile G:\wsg\SchoolTrain\FishRobot\机器鱼\机器鱼培训资料\机器鱼培训资料\机器鱼鱼体波程序\fish_0_100115\11fish.c
 0296                   .blkb 2
                        .area idata
 0296 0700              .word 7
                        .area data(ram, con, rel)
 0298                   .dbfile G:\wsg\SchoolTrain\FishRobot\机器鱼\机器鱼培训资料\机器鱼培训资料\机器鱼鱼体波程序\fish_0_100115\11fish.c
 0298                   .blkb 2
                        .area idata
 0298 0200              .word 2
                        .area data(ram, con, rel)
 029A                   .dbfile G:\wsg\SchoolTrain\FishRobot\机器鱼\机器鱼培训资料\机器鱼培训资料\机器鱼鱼体波程序\fish_0_100115\11fish.c
 029A                   .blkb 2
                        .area idata
 029A 1200              .word 18
                        .area data(ram, con, rel)
 029C                   .dbfile G:\wsg\SchoolTrain\FishRobot\机器鱼\机器鱼培训资料\机器鱼培训资料\机器鱼鱼体波程序\fish_0_100115\11fish.c
 029C                   .blkb 2
                        .area idata
 029C 0D00              .word 13
                        .area data(ram, con, rel)
 029E                   .dbfile G:\wsg\SchoolTrain\FishRobot\机器鱼\机器鱼培训资料\机器鱼培训资料\机器鱼鱼体波程序\fish_0_100115\11fish.c
 029E                   .blkb 2
                        .area idata
 029E 0800              .word 8
                        .area data(ram, con, rel)
 02A0                   .dbfile G:\wsg\SchoolTrain\FishRobot\机器鱼\机器鱼培训资料\机器鱼培训资料\机器鱼鱼体波程序\fish_0_100115\11fish.c
 02A0                   .blkb 2
                        .area idata
 02A0 1E00              .word 30
                        .area data(ram, con, rel)
 02A2                   .dbfile G:\wsg\SchoolTrain\FishRobot\机器鱼\机器鱼培训资料\机器鱼培训资料\机器鱼鱼体波程序\fish_0_100115\11fish.c
 02A2                   .blkb 2
                        .area idata
 02A2 1900              .word 25
                        .area data(ram, con, rel)
 02A4                   .dbfile G:\wsg\SchoolTrain\FishRobot\机器鱼\机器鱼培训资料\机器鱼培训资料\机器鱼鱼体波程序\fish_0_100115\11fish.c
 02A4                   .blkb 2
                        .area idata
 02A4 1400              .word 20
                        .area data(ram, con, rel)
 02A6                   .dbfile G:\wsg\SchoolTrain\FishRobot\机器鱼\机器鱼培训资料\机器鱼培训资料\机器鱼鱼体波程序\fish_0_100115\11fish.c
 02A6                   .blkb 2
                        .area idata
 02A6 2A00              .word 42
                        .area data(ram, con, rel)
 02A8                   .dbfile G:\wsg\SchoolTrain\FishRobot\机器鱼\机器鱼培训资料\机器鱼培训资料\机器鱼鱼体波程序\fish_0_100115\11fish.c
 02A8                   .blkb 2
                        .area idata
 02A8 2500              .word 37
                        .area data(ram, con, rel)
 02AA                   .dbfile G:\wsg\SchoolTrain\FishRobot\机器鱼\机器鱼培训资料\机器鱼培训资料\机器鱼鱼体波程序\fish_0_100115\11fish.c
 02AA                   .blkb 2
                        .area idata
 02AA 2000              .word 32
                        .area data(ram, con, rel)
 02AC                   .dbfile G:\wsg\SchoolTrain\FishRobot\机器鱼\机器鱼培训资料\机器鱼培训资料\机器鱼鱼体波程序\fish_0_100115\11fish.c
 02AC                   .blkb 2
                        .area idata
 02AC 3000              .word 48
                        .area data(ram, con, rel)
 02AE                   .dbfile G:\wsg\SchoolTrain\FishRobot\机器鱼\机器鱼培训资料\机器鱼培训资料\机器鱼鱼体波程序\fish_0_100115\11fish.c
 02AE                   .blkb 2
                        .area idata
 02AE 2B00              .word 43
                        .area data(ram, con, rel)
 02B0                   .dbfile G:\wsg\SchoolTrain\FishRobot\机器鱼\机器鱼培训资料\机器鱼培训资料\机器鱼鱼体波程序\fish_0_100115\11fish.c
 02B0                   .blkb 2
                        .area idata
 02B0 2600              .word 38
                        .area data(ram, con, rel)
 02B2                   .dbfile G:\wsg\SchoolTrain\FishRobot\机器鱼\机器鱼培训资料\机器鱼培训资料\机器鱼鱼体波程序\fish_0_100115\11fish.c
 02B2                   .blkb 2
                        .area idata
 02B2 3600              .word 54
                        .area data(ram, con, rel)
 02B4                   .dbfile G:\wsg\SchoolTrain\FishRobot\机器鱼\机器鱼培训资料\机器鱼培训资料\机器鱼鱼体波程序\fish_0_100115\11fish.c
 02B4                   .blkb 2
                        .area idata
 02B4 3100              .word 49
                        .area data(ram, con, rel)
 02B6                   .dbfile G:\wsg\SchoolTrain\FishRobot\机器鱼\机器鱼培训资料\机器鱼培训资料\机器鱼鱼体波程序\fish_0_100115\11fish.c
 02B6                   .blkb 2
                        .area idata
 02B6 2C00              .word 44
                        .area data(ram, con, rel)
 02B8                   .dbfile G:\wsg\SchoolTrain\FishRobot\机器鱼\机器鱼培训资料\机器鱼培训资料\机器鱼鱼体波程序\fish_0_100115\11fish.c
 02B8                   .blkb 2
                        .area idata
 02B8 3C00              .word 60
                        .area data(ram, con, rel)
 02BA                   .dbfile G:\wsg\SchoolTrain\FishRobot\机器鱼\机器鱼培训资料\机器鱼培训资料\机器鱼鱼体波程序\fish_0_100115\11fish.c
 02BA                   .blkb 2
                        .area idata
 02BA 3700              .word 55
                        .area data(ram, con, rel)
 02BC                   .dbfile G:\wsg\SchoolTrain\FishRobot\机器鱼\机器鱼培训资料\机器鱼培训资料\机器鱼鱼体波程序\fish_0_100115\11fish.c
 02BC                   .blkb 2
                        .area idata
 02BC 3200              .word 50
                        .area data(ram, con, rel)
 02BE                   .dbfile G:\wsg\SchoolTrain\FishRobot\机器鱼\机器鱼培训资料\机器鱼培训资料\机器鱼鱼体波程序\fish_0_100115\11fish.c
 02BE                   .dbsym e Dynamic_Offset_degree_y _Dynamic_Offset_degree_y A[96:16:3]I
 02BE           _Joint_Angle_value::
 02BE                   .blkb 2
                        .area idata
 02BE 0000              .word 0
                        .area data(ram, con, rel)
 02C0                   .dbfile G:\wsg\SchoolTrain\FishRobot\机器鱼\机器鱼培训资料\机器鱼培训资料\机器鱼鱼体波程序\fish_0_100115\11fish.c
 02C0                   .blkb 2
                        .area idata
 02C0 0000              .word 0
                        .area data(ram, con, rel)
 02C2                   .dbfile G:\wsg\SchoolTrain\FishRobot\机器鱼\机器鱼培训资料\机器鱼培训资料\机器鱼鱼体波程序\fish_0_100115\11fish.c
 02C2                   .blkb 2
                        .area idata
 02C2 0000              .word 0
                        .area data(ram, con, rel)
 02C4                   .dbfile G:\wsg\SchoolTrain\FishRobot\机器鱼\机器鱼培训资料\机器鱼培训资料\机器鱼鱼体波程序\fish_0_100115\11fish.c
 02C4                   .dbsym e Joint_Angle_value _Joint_Angle_value A[6:3]I
 02C4           _Static_Offset_value::
 02C4                   .blkb 2
                        .area idata
 02C4 0000              .word 0
                        .area data(ram, con, rel)
 02C6                   .dbfile G:\wsg\SchoolTrain\FishRobot\机器鱼\机器鱼培训资料\机器鱼培训资料\机器鱼鱼体波程序\fish_0_100115\11fish.c
 02C6                   .blkb 2
                        .area idata
 02C6 0000              .word 0
                        .area data(ram, con, rel)
 02C8                   .dbfile G:\wsg\SchoolTrain\FishRobot\机器鱼\机器鱼培训资料\机器鱼培训资料\机器鱼鱼体波程序\fish_0_100115\11fish.c
 02C8                   .blkb 2
                        .area idata
 02C8 0000              .word 0
                        .area data(ram, con, rel)
 02CA                   .dbfile G:\wsg\SchoolTrain\FishRobot\机器鱼\机器鱼培训资料\机器鱼培训资料\机器鱼鱼体波程序\fish_0_100115\11fish.c
 02CA                   .dbsym e Static_Offset_value _Static_Offset_value A[6:3]I
 02CA           _Dynamic_Offset_degree::
 02CA                   .blkb 2
                        .area idata
 02CA 0000              .word 0
                        .area data(ram, con, rel)
 02CC                   .dbfile G:\wsg\SchoolTrain\FishRobot\机器鱼\机器鱼培训资料\机器鱼培训资料\机器鱼鱼体波程序\fish_0_100115\11fish.c
 02CC                   .blkb 2
                        .area idata
 02CC 0000              .word 0
                        .area data(ram, con, rel)
 02CE                   .dbfile G:\wsg\SchoolTrain\FishRobot\机器鱼\机器鱼培训资料\机器鱼培训资料\机器鱼鱼体波程序\fish_0_100115\11fish.c
 02CE                   .blkb 2
                        .area idata
 02CE 0000              .word 0
                        .area data(ram, con, rel)
 02D0                   .dbfile G:\wsg\SchoolTrain\FishRobot\机器鱼\机器鱼培训资料\机器鱼培训资料\机器鱼鱼体波程序\fish_0_100115\11fish.c
 02D0                   .dbsym e Dynamic_Offset_degree _Dynamic_Offset_degree A[6:3]I
 02D0           _Dynamic_Offset_degree_char::
 02D0                   .blkb 2
                        .area idata
 02D0 0000              .byte 0,0
                        .area data(ram, con, rel)
 02D2                   .dbfile G:\wsg\SchoolTrain\FishRobot\机器鱼\机器鱼培训资料\机器鱼培训资料\机器鱼鱼体波程序\fish_0_100115\11fish.c
 02D2                   .blkb 1
                        .area idata
 02D2 00                .byte 0
                        .area data(ram, con, rel)
 02D3                   .dbfile G:\wsg\SchoolTrain\FishRobot\机器鱼\机器鱼培训资料\机器鱼培训资料\机器鱼鱼体波程序\fish_0_100115\11fish.c
 02D3                   .dbsym e Dynamic_Offset_degree_char _Dynamic_Offset_degree_char A[3:3]c
 02D3           _Dynamic_Offset_value::
 02D3                   .blkb 2
                        .area idata
 02D3 0000              .word 0
                        .area data(ram, con, rel)
 02D5                   .dbfile G:\wsg\SchoolTrain\FishRobot\机器鱼\机器鱼培训资料\机器鱼培训资料\机器鱼鱼体波程序\fish_0_100115\11fish.c
 02D5                   .blkb 2
                        .area idata
 02D5 0000              .word 0
                        .area data(ram, con, rel)
 02D7                   .dbfile G:\wsg\SchoolTrain\FishRobot\机器鱼\机器鱼培训资料\机器鱼培训资料\机器鱼鱼体波程序\fish_0_100115\11fish.c
 02D7                   .blkb 2
                        .area idata
 02D7 0000              .word 0
                        .area data(ram, con, rel)
 02D9                   .dbfile G:\wsg\SchoolTrain\FishRobot\机器鱼\机器鱼培训资料\机器鱼培训资料\机器鱼鱼体波程序\fish_0_100115\11fish.c
 02D9                   .dbsym e Dynamic_Offset_value _Dynamic_Offset_value A[6:3]I
 02D9           _Dynamic_Offset_value_per::
 02D9                   .blkb 2
                        .area idata
 02D9 0000              .word 0
                        .area data(ram, con, rel)
 02DB                   .dbfile G:\wsg\SchoolTrain\FishRobot\机器鱼\机器鱼培训资料\机器鱼培训资料\机器鱼鱼体波程序\fish_0_100115\11fish.c
 02DB                   .blkb 2
                        .area idata
 02DB 0000              .word 0
                        .area data(ram, con, rel)
 02DD                   .dbfile G:\wsg\SchoolTrain\FishRobot\机器鱼\机器鱼培训资料\机器鱼培训资料\机器鱼鱼体波程序\fish_0_100115\11fish.c
 02DD                   .blkb 2
                        .area idata
 02DD 0000              .word 0
                        .area data(ram, con, rel)
 02DF                   .dbfile G:\wsg\SchoolTrain\FishRobot\机器鱼\机器鱼培训资料\机器鱼培训资料\机器鱼鱼体波程序\fish_0_100115\11fish.c
 02DF                   .dbsym e Dynamic_Offset_value_per _Dynamic_Offset_value_per A[6:3]I
 02DF           _Dynamic_Offset_value_last::
 02DF                   .blkb 2
                        .area idata
 02DF 0000              .word 0
                        .area data(ram, con, rel)
 02E1                   .dbfile G:\wsg\SchoolTrain\FishRobot\机器鱼\机器鱼培训资料\机器鱼培训资料\机器鱼鱼体波程序\fish_0_100115\11fish.c
 02E1                   .blkb 2
                        .area idata
 02E1 0000              .word 0
                        .area data(ram, con, rel)
 02E3                   .dbfile G:\wsg\SchoolTrain\FishRobot\机器鱼\机器鱼培训资料\机器鱼培训资料\机器鱼鱼体波程序\fish_0_100115\11fish.c
 02E3                   .blkb 2
                        .area idata
 02E3 0000              .word 0
                        .area data(ram, con, rel)
 02E5                   .dbfile G:\wsg\SchoolTrain\FishRobot\机器鱼\机器鱼培训资料\机器鱼培训资料\机器鱼鱼体波程序\fish_0_100115\11fish.c
 02E5                   .dbsym e Dynamic_Offset_value_last _Dynamic_Offset_value_last A[6:3]I
 02E5           _Dynamic_Offset_value_t::
 02E5                   .blkb 2
                        .area idata
 02E5 0000              .word 0
                        .area data(ram, con, rel)
 02E7                   .dbfile G:\wsg\SchoolTrain\FishRobot\机器鱼\机器鱼培训资料\机器鱼培训资料\机器鱼鱼体波程序\fish_0_100115\11fish.c
 02E7                   .blkb 2
                        .area idata
 02E7 0000              .word 0
                        .area data(ram, con, rel)
 02E9                   .dbfile G:\wsg\SchoolTrain\FishRobot\机器鱼\机器鱼培训资料\机器鱼培训资料\机器鱼鱼体波程序\fish_0_100115\11fish.c
 02E9                   .blkb 2
                        .area idata
 02E9 0000              .word 0
                        .area data(ram, con, rel)
 02EB                   .dbfile G:\wsg\SchoolTrain\FishRobot\机器鱼\机器鱼培训资料\机器鱼培训资料\机器鱼鱼体波程序\fish_0_100115\11fish.c
 02EB                   .dbsym e Dynamic_Offset_value_t _Dynamic_Offset_value_t A[6:3]I
 02EB           _Neighbouring_Offset_degree::
 02EB                   .blkb 2
                        .area idata
 02EB 0050              .byte 0,'P
                        .area data(ram, con, rel)
 02ED                   .dbfile G:\wsg\SchoolTrain\FishRobot\机器鱼\机器鱼培训资料\机器鱼培训资料\机器鱼鱼体波程序\fish_0_100115\11fish.c
 02ED                   .blkb 1
                        .area idata
 02ED 78                .byte 'x
                        .area data(ram, con, rel)
 02EE                   .dbfile G:\wsg\SchoolTrain\FishRobot\机器鱼\机器鱼培训资料\机器鱼培训资料\机器鱼鱼体波程序\fish_0_100115\11fish.c
 02EE                   .dbsym e Neighbouring_Offset_degree _Neighbouring_Offset_degree A[3:3]c
 02EE           _Amplitude_degree::
 02EE                   .blkb 2
                        .area idata
 02EE 0F14              .byte 15,20
                        .area data(ram, con, rel)
 02F0                   .dbfile G:\wsg\SchoolTrain\FishRobot\机器鱼\机器鱼培训资料\机器鱼培训资料\机器鱼鱼体波程序\fish_0_100115\11fish.c
 02F0                   .blkb 1
                        .area idata
 02F0 19                .byte 25
                        .area data(ram, con, rel)
 02F1                   .dbfile G:\wsg\SchoolTrain\FishRobot\机器鱼\机器鱼培训资料\机器鱼培训资料\机器鱼鱼体波程序\fish_0_100115\11fish.c
 02F1                   .dbsym e Amplitude_degree _Amplitude_degree A[3:3]c
 02F1           _Amplitude_degree_tem::
 02F1                   .blkb 2
                        .area idata
 02F1 020C              .byte 2,12
                        .area data(ram, con, rel)
 02F3                   .dbfile G:\wsg\SchoolTrain\FishRobot\机器鱼\机器鱼培训资料\机器鱼培训资料\机器鱼鱼体波程序\fish_0_100115\11fish.c
 02F3                   .blkb 1
                        .area idata
 02F3 11                .byte 17
                        .area data(ram, con, rel)
 02F4                   .dbfile G:\wsg\SchoolTrain\FishRobot\机器鱼\机器鱼培训资料\机器鱼培训资料\机器鱼鱼体波程序\fish_0_100115\11fish.c
 02F4                   .blkb 2
                        .area idata
 02F4 030D              .byte 3,13
                        .area data(ram, con, rel)
 02F6                   .dbfile G:\wsg\SchoolTrain\FishRobot\机器鱼\机器鱼培训资料\机器鱼培训资料\机器鱼鱼体波程序\fish_0_100115\11fish.c
 02F6                   .blkb 1
                        .area idata
 02F6 12                .byte 18
                        .area data(ram, con, rel)
 02F7                   .dbfile G:\wsg\SchoolTrain\FishRobot\机器鱼\机器鱼培训资料\机器鱼培训资料\机器鱼鱼体波程序\fish_0_100115\11fish.c
 02F7                   .blkb 2
                        .area idata
 02F7 040E              .byte 4,14
                        .area data(ram, con, rel)
 02F9                   .dbfile G:\wsg\SchoolTrain\FishRobot\机器鱼\机器鱼培训资料\机器鱼培训资料\机器鱼鱼体波程序\fish_0_100115\11fish.c
 02F9                   .blkb 1
                        .area idata
 02F9 13                .byte 19
                        .area data(ram, con, rel)
 02FA                   .dbfile G:\wsg\SchoolTrain\FishRobot\机器鱼\机器鱼培训资料\机器鱼培训资料\机器鱼鱼体波程序\fish_0_100115\11fish.c
 02FA                   .blkb 2
                        .area idata
 02FA 050F              .byte 5,15
                        .area data(ram, con, rel)
 02FC                   .dbfile G:\wsg\SchoolTrain\FishRobot\机器鱼\机器鱼培训资料\机器鱼培训资料\机器鱼鱼体波程序\fish_0_100115\11fish.c
 02FC                   .blkb 1
                        .area idata
 02FC 14                .byte 20
                        .area data(ram, con, rel)
 02FD                   .dbfile G:\wsg\SchoolTrain\FishRobot\机器鱼\机器鱼培训资料\机器鱼培训资料\机器鱼鱼体波程序\fish_0_100115\11fish.c
 02FD                   .blkb 2
                        .area idata
 02FD 0610              .byte 6,16
                        .area data(ram, con, rel)
 02FF                   .dbfile G:\wsg\SchoolTrain\FishRobot\机器鱼\机器鱼培训资料\机器鱼培训资料\机器鱼鱼体波程序\fish_0_100115\11fish.c
 02FF                   .blkb 1
                        .area idata
 02FF 15                .byte 21
                        .area data(ram, con, rel)
 0300                   .dbfile G:\wsg\SchoolTrain\FishRobot\机器鱼\机器鱼培训资料\机器鱼培训资料\机器鱼鱼体波程序\fish_0_100115\11fish.c
 0300                   .blkb 2
                        .area idata
 0300 0711              .byte 7,17
                        .area data(ram, con, rel)
 0302                   .dbfile G:\wsg\SchoolTrain\FishRobot\机器鱼\机器鱼培训资料\机器鱼培训资料\机器鱼鱼体波程序\fish_0_100115\11fish.c
 0302                   .blkb 1
                        .area idata
 0302 16                .byte 22
                        .area data(ram, con, rel)
 0303                   .dbfile G:\wsg\SchoolTrain\FishRobot\机器鱼\机器鱼培训资料\机器鱼培训资料\机器鱼鱼体波程序\fish_0_100115\11fish.c
 0303                   .blkb 2
                        .area idata
 0303 0812              .byte 8,18
                        .area data(ram, con, rel)
 0305                   .dbfile G:\wsg\SchoolTrain\FishRobot\机器鱼\机器鱼培训资料\机器鱼培训资料\机器鱼鱼体波程序\fish_0_100115\11fish.c
 0305                   .blkb 1
                        .area idata
 0305 17                .byte 23
                        .area data(ram, con, rel)
 0306                   .dbfile G:\wsg\SchoolTrain\FishRobot\机器鱼\机器鱼培训资料\机器鱼培训资料\机器鱼鱼体波程序\fish_0_100115\11fish.c
 0306                   .blkb 2
                        .area idata
 0306 0913              .byte 9,19
                        .area data(ram, con, rel)
 0308                   .dbfile G:\wsg\SchoolTrain\FishRobot\机器鱼\机器鱼培训资料\机器鱼培训资料\机器鱼鱼体波程序\fish_0_100115\11fish.c
 0308                   .blkb 1
                        .area idata
 0308 18                .byte 24
                        .area data(ram, con, rel)
 0309                   .dbfile G:\wsg\SchoolTrain\FishRobot\机器鱼\机器鱼培训资料\机器鱼培训资料\机器鱼鱼体波程序\fish_0_100115\11fish.c
 0309                   .blkb 2
                        .area idata
 0309 0A14              .byte 10,20
                        .area data(ram, con, rel)
 030B                   .dbfile G:\wsg\SchoolTrain\FishRobot\机器鱼\机器鱼培训资料\机器鱼培训资料\机器鱼鱼体波程序\fish_0_100115\11fish.c
 030B                   .blkb 1
                        .area idata
 030B 19                .byte 25
                        .area data(ram, con, rel)
 030C                   .dbfile G:\wsg\SchoolTrain\FishRobot\机器鱼\机器鱼培训资料\机器鱼培训资料\机器鱼鱼体波程序\fish_0_100115\11fish.c
 030C                   .blkb 2
                        .area idata
 030C 0B15              .byte 11,21
                        .area data(ram, con, rel)
 030E                   .dbfile G:\wsg\SchoolTrain\FishRobot\机器鱼\机器鱼培训资料\机器鱼培训资料\机器鱼鱼体波程序\fish_0_100115\11fish.c
 030E                   .blkb 1
                        .area idata
 030E 1A                .byte 26
                        .area data(ram, con, rel)
 030F                   .dbfile G:\wsg\SchoolTrain\FishRobot\机器鱼\机器鱼培训资料\机器鱼培训资料\机器鱼鱼体波程序\fish_0_100115\11fish.c
 030F                   .blkb 2
                        .area idata
 030F 0C16              .byte 12,22
                        .area data(ram, con, rel)
 0311                   .dbfile G:\wsg\SchoolTrain\FishRobot\机器鱼\机器鱼培训资料\机器鱼培训资料\机器鱼鱼体波程序\fish_0_100115\11fish.c
 0311                   .blkb 1
                        .area idata
 0311 1B                .byte 27
                        .area data(ram, con, rel)
 0312                   .dbfile G:\wsg\SchoolTrain\FishRobot\机器鱼\机器鱼培训资料\机器鱼培训资料\机器鱼鱼体波程序\fish_0_100115\11fish.c
 0312                   .blkb 2
                        .area idata
 0312 0D17              .byte 13,23
                        .area data(ram, con, rel)
 0314                   .dbfile G:\wsg\SchoolTrain\FishRobot\机器鱼\机器鱼培训资料\机器鱼培训资料\机器鱼鱼体波程序\fish_0_100115\11fish.c
 0314                   .blkb 1
                        .area idata
 0314 1C                .byte 28
                        .area data(ram, con, rel)
 0315                   .dbfile G:\wsg\SchoolTrain\FishRobot\机器鱼\机器鱼培训资料\机器鱼培训资料\机器鱼鱼体波程序\fish_0_100115\11fish.c
 0315                   .blkb 2
                        .area idata
 0315 0E18              .byte 14,24
                        .area data(ram, con, rel)
 0317                   .dbfile G:\wsg\SchoolTrain\FishRobot\机器鱼\机器鱼培训资料\机器鱼培训资料\机器鱼鱼体波程序\fish_0_100115\11fish.c
 0317                   .blkb 1
                        .area idata
 0317 1D                .byte 29
                        .area data(ram, con, rel)
 0318                   .dbfile G:\wsg\SchoolTrain\FishRobot\机器鱼\机器鱼培训资料\机器鱼培训资料\机器鱼鱼体波程序\fish_0_100115\11fish.c
 0318                   .blkb 2
                        .area idata
 0318 0F19              .byte 15,25
                        .area data(ram, con, rel)
 031A                   .dbfile G:\wsg\SchoolTrain\FishRobot\机器鱼\机器鱼培训资料\机器鱼培训资料\机器鱼鱼体波程序\fish_0_100115\11fish.c
 031A                   .blkb 1
                        .area idata
 031A 1E                .byte 30
                        .area data(ram, con, rel)
 031B                   .dbfile G:\wsg\SchoolTrain\FishRobot\机器鱼\机器鱼培训资料\机器鱼培训资料\机器鱼鱼体波程序\fish_0_100115\11fish.c
 031B                   .blkb 2
                        .area idata
 031B 101A              .byte 16,26
                        .area data(ram, con, rel)
 031D                   .dbfile G:\wsg\SchoolTrain\FishRobot\机器鱼\机器鱼培训资料\机器鱼培训资料\机器鱼鱼体波程序\fish_0_100115\11fish.c
 031D                   .blkb 1
                        .area idata
 031D 1F                .byte 31
                        .area data(ram, con, rel)
 031E                   .dbfile G:\wsg\SchoolTrain\FishRobot\机器鱼\机器鱼培训资料\机器鱼培训资料\机器鱼鱼体波程序\fish_0_100115\11fish.c
 031E                   .blkb 2
                        .area idata
 031E 111B              .byte 17,27
                        .area data(ram, con, rel)
 0320                   .dbfile G:\wsg\SchoolTrain\FishRobot\机器鱼\机器鱼培训资料\机器鱼培训资料\机器鱼鱼体波程序\fish_0_100115\11fish.c
 0320                   .blkb 1
                        .area idata
 0320 20                .byte 32
                        .area data(ram, con, rel)
 0321                   .dbfile G:\wsg\SchoolTrain\FishRobot\机器鱼\机器鱼培训资料\机器鱼培训资料\机器鱼鱼体波程序\fish_0_100115\11fish.c
 0321                   .dbsym e Amplitude_degree_tem _Amplitude_degree_tem A[48:16:3]c
                        .area text(rom, con, rel)
 0000                   .dbfile G:\wsg\SchoolTrain\FishRobot\机器鱼\机器鱼培训资料\机器鱼培训资料\机器鱼鱼体波程序\fish_0_100115\11fish.c
 0000                   .dbfunc e delay _delay fV
 0000           ;              k -> y+0
 0000           ;       interval -> y+4
                        .even
 0000           _delay::
 0000 0E940000          xcall push_arg4
 0004 2497              sbiw R28,4
 0006                   .dbline -1
 0006                   .dbline 351
 0006           ; //ICC-AVR application builder : 2006-11-23 22:56:28
 0006           ; // Target : M128
 0006           ; // Crystal: 8.0000Mhz
 0006           ; /*  
 0006           ;    comunicating protocol with the radio controller:
 0006           ;    发送8位二进制数
 0006           ;    1表示接上
 0006           ;    0表示松开
 0006           ;    eg:   1111   X  X  X  X
 0006           ;                 前 后 左 右
 0006           ; */  
 0006           ; 
 0006           ; /*
 0006           ; *
 0006           ; *  手动模式和自动模式的切换：unsigned char is_uart=0;//若是想屏蔽掉开电运行的自动模式，置此标志位为1
 0006           ; *
 0006           ; *
 0006           ; *
 0006           ; */
 0006           ; #include <iom128v.h>
 0006           ; #include <macros.h>
 0006           ; #include "TWI_Master.h"
 0006           ; 
 0006           ; #define FLK 8                          //晶振 crystal
 0006           ; #define PI 3.1416        //**圆周率
 0006           ; #define Joint_Num  3
 0006           ; 
 0006           ; #define SLA_W 0xA0
 0006           ; #define SLA_R 0xA1
 0006           ; 
 0006           ; ////////////////////////////----i2c地址--BEGIN----///////////////////////
 0006           ; //有些i2c一次可以写16个，而有些一次只能写8个，为了通用性，此处每次写入8个
 0006           ; //读不受限制
 0006           ; #define ADD_i 0x10//ID*1
 0006           ; #define ADD_f 0x20//频率*1
 0006           ; #define ADD_t 0x30//调直*3
 0006           ; #define ADD_s1 0x40//速度*16
 0006           ; #define ADD_s2 0x48
 0006           ; #define ADD_d 0x50//滞后角*3
 0006           ; #define ADD_1 0x60//幅度*48
 0006           ; #define ADD_2 0x68
 0006           ; #define ADD_3 0x70
 0006           ; #define ADD_4 0x78
 0006           ; #define ADD_5 0x80
 0006           ; #define ADD_6 0x88
 0006           ; #define ADD_10 0x90//转角偏移*24
 0006           ; #define ADD_20 0x98
 0006           ; #define ADD_30 0xa0
 0006           ; ////////////////////////////----i2c地址--END----///////////////////////
 0006           ; #define PWM_Period_ms 20           //ms
 0006           ; #define PWM_Duty_Middle_us 1500  //us
 0006           ; #define PWM_Duty_LeftLimit_us 900  //us
 0006           ; #define PWM_Duty_RightLimit_us 2100  //us
 0006           ; 
 0006           ; #define D_MAX 60  //Dynamic_Offset_degree_origin[0]的最大值
 0006           ; #define D_Y_MAX 60  //Dynamic_Offset_degree_y[0]的最大值
 0006           ; 
 0006           ; #define A_MAX 20 //*0.85=Amplitude_degree_tem[0]的最大值
 0006           ; 
 0006           ; #define m_time 0x10 //模态变化中控制时间
 0006           ; #define y_time 0x2 //原始转弯模式中控制时间//每秒大概加2
 0006           ; 
 0006           ; 
 0006           ; int LeftLimit_value, RightLimit_value, MiddlePosition_value,PWM_Period_value;
 0006           ; unsigned char Speed=0;   
 0006           ; unsigned char Instant=0;
 0006           ; unsigned char redata;//串口数据
 0006           ; unsigned char redata_fan=0;//是速度或方向指令时，存储该指令
 0006           ; unsigned char id_fan=0;//由FISHID[0]和redata_fan组成的1个字节数，返回值
 0006           ; unsigned char redata_tem;//命令数据暂存
 0006           ; unsigned char redata_i2c;//i2c命令数据暂存
 0006           ; unsigned char baocun_i=0;
 0006           ; unsigned char t_dynamic=0;//转弯命令后，从原状态到新状态的过渡时间，收到命令后的0到Speed_dynamic/2时间段为过渡状态
 0006           ; unsigned char Speed_dynamic=0;//收到转弯命令时刻的Speed值
 0006           ; 
 0006           ; unsigned char n=0;
 0006           ; unsigned char m=0;//测试时循环发数据用
 0006           ; unsigned char s=0;//拆分数组子函数中使用
 0006           ; 
 0006           ; //////////////----需要写入i2c的数据--BEGIN----//////////////////
 0006           ; unsigned char FISHID[1]={0x01};//地址ADD_i
 0006           ; unsigned char FISHID_init[1]={0x01};
 0006           ; unsigned char FISHID_I2C[3]={0,0,0x01};
 0006           ; 
 0006           ; unsigned char freqs[1]={0};//地址ADD_f,freq[freqs[x]]
 0006           ; unsigned char freqs_init[1]={0};
 0006           ; unsigned char freqs_I2C[3]={0,0,0};
 0006           ; 
 0006           ; unsigned char Static_Offset_degree[3]={0,0,0};//地址ADD_t
 0006           ; unsigned char Static_Offset_degree_init[3]={0,0,0};
 0006           ; unsigned char degree_I2C[5]={0,0,0,0,0};
 0006           ; 
 0006           ; //Speed_tem[16]//地址ADD_s1,s2
 0006           ; unsigned char Speed_tem_init[16]={0,255,240,225,210,195,180,165,150,135,120,105,90,75,60,45};
 0006           ; unsigned char Speed_tem_I2C[18]={0};  
 0006           ; 
 0006           ; unsigned char Speed_tem_init1[8]={0};
 0006           ; unsigned char Speed_tem_init2[8]={0};
 0006           ; 
 0006           ; unsigned char Speed_tem_z[16]={0};//Dynamic_Offset_degree_origin[8][3]直接转成的1维数组
 0006           ; unsigned char Speed_tem_z1[8]={0};//0-7
 0006           ; unsigned char Speed_tem_z2[8]={0};//8-16
 0006           ; 
 0006           ; unsigned char Speed_tem_I2C1[10]={0};
 0006           ; unsigned char Speed_tem_I2C2[10]={0};
 0006           ; 
 0006           ; //Neighbouring_Offset_degree[3]//地址ADD_d
 0006           ; unsigned char Neighbouring_Offset_degree_init[3]={0,80,120};
 0006           ; unsigned char Neighbouring_Offset_degree_I2C[5]={0};
 0006           ; 
 0006           ; 
 0006           ; //Amplitude_degree_tem[16][3]//地址ADD_1,2,3,4,5,6
 0006           ; unsigned char Amplitude_degree_tem_init[48]=
 0006           ;               {
 0006           ;                           0.1*A_MAX,0.1*A_MAX+10,0.1*A_MAX+15,//0 ，速度小摆幅小
 0006           ;                 0.15*A_MAX,0.15*A_MAX+10,0.15*A_MAX+15,//1
 0006           ;                 0.2*A_MAX,0.2*A_MAX+10,0.2*A_MAX+15,//
 0006           ;                 0.25*A_MAX,0.25*A_MAX+10,0.25*A_MAX+15,//3
 0006           ;                 0.3*A_MAX,0.3*A_MAX+10,0.3*A_MAX+15,//
 0006           ;                 0.35*A_MAX,0.35*A_MAX+10,0.35*A_MAX+15,//5
 0006           ;                 0.4*A_MAX,0.4*A_MAX+10,0.4*A_MAX+15,//
 0006           ;                 0.45*A_MAX,0.45*A_MAX+10,0.45*A_MAX+15,//7
 0006           ;                 0.5*A_MAX,0.5*A_MAX+10,0.5*A_MAX+15,//8******
 0006           ;                 0.55*A_MAX,0.55*A_MAX+10,0.55*A_MAX+15,//9
 0006           ;                 0.6*A_MAX,0.6*A_MAX+10,0.6*A_MAX+15,//
 0006           ;                 0.65*A_MAX,0.65*A_MAX+10,0.65*A_MAX+15,//11
 0006           ;                 0.7*A_MAX,0.7*A_MAX+10,0.7*A_MAX+15,//
 0006           ;                 0.75*A_MAX,0.75*A_MAX+10,0.75*A_MAX+15,//13
 0006           ;                 0.8*A_MAX,0.8*A_MAX+10,0.8*A_MAX+15,//
 0006           ;                 0.85*A_MAX,0.85*A_MAX+10,0.85*A_MAX+15//15，速度大摆幅大
 0006           ;                         };
 0006           ;                         //unsigned char Amplitude_degree_tem_I2C[50]={0};
 0006           ; unsigned char Amplitude_degree_tem_init1[8]={0};
 0006           ; unsigned char Amplitude_degree_tem_init2[8]={0};
 0006           ; unsigned char Amplitude_degree_tem_init3[8]={0};
 0006           ; unsigned char Amplitude_degree_tem_init4[8]={0};
 0006           ; unsigned char Amplitude_degree_tem_init5[8]={0};
 0006           ; unsigned char Amplitude_degree_tem_init6[8]={0};
 0006           ; unsigned char Amplitude_degree_tem_z[48]={0};//Amplitude_degree_tem[16][3]直接转成的1维数组
 0006           ; unsigned char Amplitude_degree_tem_z1[8]={0};//0-11
 0006           ; unsigned char Amplitude_degree_tem_z2[8]={0};//12-23
 0006           ; unsigned char Amplitude_degree_tem_z3[8]={0};//24-35
 0006           ; unsigned char Amplitude_degree_tem_z4[8]={0};//36-47
 0006           ; unsigned char Amplitude_degree_tem_z5[8]={0};//36-47
 0006           ; unsigned char Amplitude_degree_tem_z6[8]={0};//36-47
 0006           ; unsigned char Amplitude_degree_tem_I2C1[10]={0};
 0006           ; unsigned char Amplitude_degree_tem_I2C2[10]={0};
 0006           ; unsigned char Amplitude_degree_tem_I2C3[10]={0};
 0006           ; unsigned char Amplitude_degree_tem_I2C4[10]={0};
 0006           ; unsigned char Amplitude_degree_tem_I2C5[10]={0};
 0006           ; unsigned char Amplitude_degree_tem_I2C6[10]={0};
 0006           ; 
 0006           ; //Dynamic_Offset_degree_origin [8][3],地址ADD_10,20,30,40
 0006           ; unsigned char Dynamic_Offset_degree_origin_init[24]=
 0006           ; {
 0006           ;   D_MAX,D_MAX-5,0,  //右14，右15，左0，急//加负号是左
 0006           ;   0.8*D_MAX,0.8*D_MAX-5,0, //右13，左1，q
 0006           ;   0.6*D_MAX,0.6*D_MAX-5,0,  //右12，左2,w
 0006           ;   0.45*D_MAX,0.45*D_MAX-5,0, //右11，左3,e
 0006           ;   0.3*D_MAX,0.3*D_MAX-5,0,  //右10，左4.r
 0006           ;   0.15*D_MAX,0.15*D_MAX-5,0, //右9，左5.t
 0006           ;   0.1*D_MAX,0.1*D_MAX-5,0,  //右8，左6，缓.y
 0006           ;     0,  0,  0 //中7，不转
 0006           ; };
 0006           ; unsigned char Dynamic_Offset_degree_origin_init1[8]={0};
 0006           ; unsigned char Dynamic_Offset_degree_origin_init2[8]={0};
 0006           ; unsigned char Dynamic_Offset_degree_origin_init3[8]={0};
 0006           ; unsigned char Dynamic_Offset_degree_origin_z[24]={0};//Dynamic_Offset_degree_origin[8][3]直接转成的1维数组
 0006           ; unsigned char Dynamic_Offset_degree_origin_z1[8]={0};//0-11
 0006           ; unsigned char Dynamic_Offset_degree_origin_z2[8]={0};//12-23
 0006           ; unsigned char Dynamic_Offset_degree_origin_z3[8]={0};//12-23
 0006           ; unsigned char Dynamic_Offset_degree_origin_I2C1[10]={0};//
 0006           ; unsigned char Dynamic_Offset_degree_origin_I2C2[10]={0};//
 0006           ; unsigned char Dynamic_Offset_degree_origin_I2C3[10]={0};//
 0006           ; //////////////----需要写入i2c的数据--END----//////////////////
 0006           ; 
 0006           ; 
 0006           ; /////////////----定义标志位--BEGIN----//////////////////
 0006           ; unsigned char isSrlStart=0;//收到开始位时置1；当为1时，开始接收下一位地址码，并判断是否匹配
 0006           ; unsigned char isSrlStartI2c=0;//收到初始化I2c的起始位时置1；开始接收下一位地址码，并判断是否匹配
 0006           ; unsigned char addr=0;//地址位匹配时置1；开始接收下一位命令位
 0006           ; unsigned char addrI2c=0;//i2c地址位匹配时置1；开始接受下一位i2c命令位
 0006           ; unsigned char s_change=0;//速度改变时置1 
 0006           ; unsigned char d_change=0;//方向改变时置1
 0006           ; unsigned char d_change_t=0;//方向改变,过渡状态中为1，稳定后清零
 0006           ; unsigned char d_change_t_v=0;//方向改变时置1，将实时偏移角赋给last作为前一状态偏移角，然后清零该标志位
 0006           ; unsigned char t_change=0;//调直时置1
 0006           ; unsigned char ts_change=0;//保存或取消调直状态时置1
 0006           ; unsigned char a_change=0;//幅度改变时置1
 0006           ; unsigned char f_change=0;//频率改变时置1
 0006           ; unsigned char id_change=0;//id改变时置1
 0006           ; unsigned char e_change=0;//接收到结束位时置1
 0006           ; unsigned char i_change=0;//接收到i2c初始化命令时置为1
 0006           ; unsigned char i2c_change=0;//接收到i2c初始化命令的结束位时置为1
 0006           ; unsigned char isInstruction=0;//是否接收到指令，已接收置为1，未接收，置为0；设置个标志位，保证指令必须是四位才能够执行，
 0006           ; //比如aa 9_ d5 d0 fc这样的指令是无效的，但若无此标志位，这个指令就是有效的，并且执行d0命令 
 0006           ; unsigned char isInstructionI2c=0;//是否接收到i2c指令，已接收置为1，未接收，置为0；设置个标志位，
 0006           ; //保证指令必须是四位才能够执行，比如cc 74 8_ aa fc这样的指令是无效的，但若无此标志位，这个指令就是有效的，并且执行8_命令 
 0006           ; //以上标志位，接收到结束位，执行命令后，清0
 0006           ; 
 0006           ; unsigned char is_uart=1;//串口是否接收到命令，鱼刚开电时，此标志位若为0，自动运行设定的模式，当串口接受到控制命令时候，此标志位置为1，进入手动控制模式
 0006           ; unsigned char m_change=0;//接收到模态码时置1，接收到其它命令时清0
 0006           ; unsigned char m_cishu=0;//mm_cishu,mmm_cishu共同决定模态码置1后循环的次数
 0006           ; unsigned char mm_cishu=0;//
 0006           ; unsigned char mmm_cishu=m_time-1;//
 0006           ; unsigned char a_cishu=0;//aa_cishu,aaa_cishu共同决定自动状态循环的次数//*auto
 0006           ; unsigned char aa_cishu=0;//
 0006           ; unsigned char aaa_cishu=m_time-1;//
 0006           ; unsigned char cishu=0;//模态中动作循环，以3为周期，即0,1,2,0,1,2....
 0006           ; unsigned char auto_cishu=0;//模态中动作循环，以5为周期，即0,1,2,3,4,0,1,2,3,4....
 0006           ; unsigned char y_change=0;//接收到原始转弯方式时置为1，接收到其他命令时清0
 0006           ; unsigned char y_changing=0;//正在执行原始转弯方式时置为1，此时不接受其他命令
 0006           ; unsigned char yy_time=0xff;//与y_time共同决定原始转弯模式的时间
 0006           ; unsigned char y_cishu=0;   //
 0006           ; unsigned char yy_cishu=0;
 0006           ; unsigned char yyy_cishu=y_time-1;
 0006           ; unsigned char cishu_y=0;//0时转弯，1时回到收到命令前的速度，直游
 0006           ; unsigned char y_tem=0;//转弯档
 0006           ; unsigned char y_speed=0;//保存转弯前速度
 0006           ; /////////////----定义标志位--END----//////////////////
 0006           ; 
 0006           ; 
 0006           ; /////////////----各档参数--BEGIN----//////////////////
 0006           ; unsigned char s_tem=0;//速度档，Speed_tem[s_tem],Amplitude_degree_tem[s_tem][i]
 0006           ; unsigned char m_tem=0;//m_tem&0x0f=模态档
 0006           ; unsigned char d_tem=0;//方向档，Dynamic_Offset_degree_origin [d_tem][i]
 0006           ; unsigned char dd_tem=0;//方向档左右同一后，
 0006           ; unsigned char flag=0;
 0006           ; // d_tem 0  1  2  3  4  5  6  7  8  9  10  11  12  13  14  15 //7前左，后右
 0006           ; //dd_tem 0  1  2  3  4  5  6  7  6  5  4   3   2   1   0   0 //加负号左
 0006           ; ////flag=1时，左转d_tem小于7，加负号，flag=0，右转d_tem大于等于7
 0006           ; //unsigned char y_tem=0;//原始转弯档
 0006           ; unsigned char i2c_canshu=0;//保存参数修改时置1
 0006           ; 
 0006           ; //4个频率，旧通信模块的改频率，新通信模块不用此变量
 0006           ; unsigned char freq[4]={0xff,0xf7,0xef,0xdf};
 0006           ; 
 0006           ; //16档速度值,0-15,Speed值越大，速度越小
 0006           ; unsigned char Speed_tem[16]=  
 0006           ; {
 0006           ;   0,255,240,225,210,195,180,165,150,135,120,105,90,75,60,45//初始值，8-150
 0006           ; };//最大255//最慢150比较合适
 0006           ; 
 0006           ; //16档转弯值，0-15,7不转
 0006           ; unsigned char Dynamic_Offset_degree_origin[8][Joint_Num]=
 0006           ; {
 0006           ;   {D_MAX,D_MAX-5,0},  //右14，右15，左0，急//加负号是左
 0006           ;   {0.9*D_MAX,0.9*D_MAX-5,0}, //右13，左1，q
 0006           ;   {0.8*D_MAX,0.8*D_MAX-5,0},  //右12，左2,w
 0006           ;   {0.7*D_MAX,0.7*D_MAX-5,0}, //右11，左3,e
 0006           ;   {0.5*D_MAX,0.5*D_MAX-5,0},  //右10，左4.r
 0006           ;   {0.3*D_MAX,0.3*D_MAX-5,0}, //右9，左5.t
 0006           ;   {0.1*D_MAX,0.1*D_MAX-5,0},  //右8，左6，缓.y
 0006           ;     {0,  0,  0} //中7，不转
 0006           ; };//常量数组，给出Dynamic_Offset_degree的值
 0006           ; 
 0006           ; //原始转弯方式，16档转弯值，0-15,7不转
 0006           ; int Dynamic_Offset_degree_y[16][Joint_Num] =
 0006           ; {
 0006           ;   {-D_Y_MAX,-D_Y_MAX-5,-D_Y_MAX-10},  //左0，急
 0006           ;   {-0.9*D_Y_MAX,-0.9*D_Y_MAX-5,-0.9*D_Y_MAX-10}, //左1
 0006           ;   {-0.8*D_Y_MAX,-0.8*D_Y_MAX-5,-0.8*D_Y_MAX-10},  //左2
 0006           ;   {-0.7*D_Y_MAX,-0.7*D_Y_MAX-5,-0.7*D_Y_MAX-10}, //左3
 0006           ;   {-0.5*D_Y_MAX,-0.5*D_Y_MAX-5,-0.5*D_Y_MAX-10},  //左4
 0006           ;   {-0.3*D_Y_MAX,-0.3*D_Y_MAX-5,-0.3*D_Y_MAX-10}, //左5
 0006           ;   {-0.1*D_Y_MAX,-0.1*D_Y_MAX-5,-0.1*D_Y_MAX-10},  //左6，缓
 0006           ;   {  0,  0,  0}, //中7，不转
 0006           ;   { 0.1*D_Y_MAX, 0.1*D_Y_MAX-5,0.1*D_Y_MAX-10},  //右8，缓
 0006           ;   { 0.2*D_Y_MAX, 0.2*D_Y_MAX-5,0.2*D_Y_MAX-10}, //右9
 0006           ;   { 0.3*D_Y_MAX, 0.3*D_Y_MAX-5,0.3*D_Y_MAX-10},  //右10
 0006           ;   { 0.5*D_Y_MAX, 0.5*D_Y_MAX-5,0.5*D_Y_MAX-10}, //右11
 0006           ;   { 0.7*D_Y_MAX, 0.7*D_Y_MAX-5,0.7*D_Y_MAX-10},  //右12
 0006           ;   { 0.8*D_Y_MAX, 0.8*D_Y_MAX-5,0.8*D_Y_MAX-10}, //右13
 0006           ;   { 0.9*D_Y_MAX, 0.9*D_Y_MAX-5,0.9*D_Y_MAX-10},  //右14
 0006           ;   { D_Y_MAX,  D_Y_MAX-5, D_Y_MAX-10} //右15，急
 0006           ; };//常量数组，给出Dynamic_Offset_degree的值
 0006           ; 
 0006           ; int Joint_Angle_value [Joint_Num] =     //the final value to be written in duty cycle register
 0006           ; {
 0006           ;   0, 0, 0
 0006           ; };//初始化值
 0006           ; 
 0006           ; int Static_Offset_value [Joint_Num] =//调直用, 单位为度
 0006           ; {
 0006           ;   0, 0, 0
 0006           ; };
 0006           ; 
 0006           ; 
 0006           ; int Dynamic_Offset_degree [Joint_Num] =// modified through communication转弯用
 0006           ; {
 0006           ;  0, 0, 0           
 0006           ; };//用来计算Dynamic_Offset_value
 0006           ; 
 0006           ; unsigned char Dynamic_Offset_degree_char[Joint_Num]={0,0,0};
 0006           ; 
 0006           ; int Dynamic_Offset_value [Joint_Num] =
 0006           ; {
 0006           ;  0, 0, 0
 0006           ; };//根据Dynamic_Offset_degree计算得到,存储收到的转弯命令的Dynamic_Offset_value值，也就是要达到的值
 0006           ; 
 0006           ; int Dynamic_Offset_value_per[Joint_Num]=
 0006           ; {
 0006           ;  0,0,0
 0006           ; };//过渡状态时，每次增加的偏移角
 0006           ; 
 0006           ; int Dynamic_Offset_value_last[Joint_Num]=
 0006           ; {
 0006           ;  0,0,0
 0006           ; };//收到转弯命令之前的Dynamic_Offset_value值
 0006           ; 
 0006           ; int Dynamic_Offset_value_t[Joint_Num]=
 0006           ; {
 0006           ;  0,0,0
 0006           ; };//实时的Dynamic_Offset_value值
 0006           ; 
 0006           ; unsigned char Neighbouring_Offset_degree[Joint_Num] =// modified through communication 每关节相位差
 0006           ; {
 0006           ; // 0,60,120
 0006           ;   0,80,120
 0006           ; };
 0006           ; //常量，绝对相位差
 0006           ; unsigned char Amplitude_degree[Joint_Num] =// modified through communication 各关节摆幅
 0006           ; {
 0006           ;   15,20,25
 0006           ; //   90,20,25
 0006           ; };//常量,控制摆幅，Asin(),最大90度
 0006           ; unsigned char Amplitude_degree_tem[16][Joint_Num] =//16档摆幅，对应速度，0-15
 0006           ; {
 0006           ;   {0.1*A_MAX,0.1*A_MAX+10,0.1*A_MAX+15},//0 ，速度小摆幅小
 0006           ;   {0.15*A_MAX,0.15*A_MAX+10,0.15*A_MAX+15},//1
 0006           ;   {0.2*A_MAX,0.2*A_MAX+10,0.2*A_MAX+15},//
 0006           ;   {0.25*A_MAX,0.25*A_MAX+10,0.25*A_MAX+15},//3
 0006           ;   {0.3*A_MAX,0.3*A_MAX+10,0.3*A_MAX+15},//
 0006           ;   {0.35*A_MAX,0.35*A_MAX+10,0.35*A_MAX+15},//5
 0006           ;   {0.4*A_MAX,0.4*A_MAX+10,0.4*A_MAX+15},//
 0006           ;   {0.45*A_MAX,0.45*A_MAX+10,0.45*A_MAX+15},//7
 0006           ;   {0.5*A_MAX,0.5*A_MAX+10,0.5*A_MAX+15},//8******
 0006           ;   {0.55*A_MAX,0.55*A_MAX+10,0.55*A_MAX+15},//9
 0006           ;   {0.6*A_MAX,0.6*A_MAX+10,0.6*A_MAX+15},//
 0006           ;   {0.65*A_MAX,0.65*A_MAX+10,0.65*A_MAX+15},//11
 0006           ;   {0.7*A_MAX,0.7*A_MAX+10,0.7*A_MAX+15},//
 0006           ;   {0.75*A_MAX,0.75*A_MAX+10,0.75*A_MAX+15},//13
 0006           ;   {0.8*A_MAX,0.8*A_MAX+10,0.8*A_MAX+15},//
 0006           ;   {0.85*A_MAX,0.85*A_MAX+10,0.85*A_MAX+15}//15，速度大摆幅大
 0006           ; };
 0006           ; /////////////----各档参数--END----//////////////////
 0006           ; 
 0006           ; 
 0006           ; //*************************delay延时函数**********************
 0006           ; void delay(double interval)
 0006           ; {
 0006                   .dbline 353
 0006           ;       double k;
 0006           ;       for(k=0;k<interval;k++);
 0006 00E0              ldi R16,<L6
 0008 10E0              ldi R17,>L6
 000A 0E940000          xcall elpm32
 000E 0883              std y+0,R16
 0010 1983              std y+1,R17
 0012 2A83              std y+2,R18
 0014 3B83              std y+3,R19
 0016 14C0              xjmp L5
 0018           L2:
 0018                   .dbline 353
 0018           L3:
 0018                   .dbline 353
 0018 2880              ldd R2,y+0
 001A 3980              ldd R3,y+1
 001C 4A80              ldd R4,y+2
 001E 5B80              ldd R5,y+3
 0020 00E0              ldi R16,<L7
 0022 10E0              ldi R17,>L7
 0024 0E940000          xcall elpm32
 0028 3A93              st -y,R19
 002A 2A93              st -y,R18
 002C 1A93              st -y,R17
 002E 0A93              st -y,R16
 0030 8101              movw R16,R2
 0032 9201              movw R18,R4
 0034 0E940000          xcall fpadd2
 0038 0883              std y+0,R16
 003A 1983              std y+1,R17
 003C 2A83              std y+2,R18
 003E 3B83              std y+3,R19
 0040           L5:
 0040                   .dbline 353
 0040 0881              ldd R16,y+0
 0042 1981              ldd R17,y+1
 0044 2A81              ldd R18,y+2
 0046 3B81              ldd R19,y+3
 0048 CE01              movw R24,R28
 004A 0496              adiw R24,4
 004C 9A93              st -y,R25
 004E 8A93              st -y,R24
 0050 0E940000          xcall fpcmp1
 0054 0CF3              brlt L2
 0056           X0:
 0056                   .dbline -2
 0056           L1:
 0056                   .dbline 0 ; func end
 0056 2896              adiw R28,8
 0058 0895              ret
 005A                   .dbsym l k 0 D
 005A                   .dbsym l interval 4 D
 005A                   .dbend
 005A                   .dbfunc e delay_1ms _delay_1ms fV
 005A           ;              i -> R16,R17
                        .even
 005A           _delay_1ms::
 005A                   .dbline -1
 005A                   .dbline 357
 005A           ; }
 005A           ; 
 005A           ; void delay_1ms(void) 
 005A           ; { 
 005A                   .dbline 359
 005A           ;  unsigned int i; 
 005A           ;  for (i=0;i<1142;i++) 
 005A 0027              clr R16
 005C 1127              clr R17
 005E 02C0              xjmp L12
 0060           L9:
 0060                   .dbline 360
 0060           ;   { 
 0060                   .dbline 361
 0060           ;   } 
 0060           L10:
 0060                   .dbline 359
 0060 0F5F              subi R16,255  ; offset = 1
 0062 1F4F              sbci R17,255
 0064           L12:
 0064                   .dbline 359
 0064 0637              cpi R16,118
 0066 E4E0              ldi R30,4
 0068 1E07              cpc R17,R30
 006A D0F3              brlo L9
 006C           X1:
 006C                   .dbline -2
 006C           L8:
 006C                   .dbline 0 ; func end
 006C 0895              ret
 006E                   .dbsym r i 16 i
 006E                   .dbend
 006E                   .dbfunc e delay_nms _delay_nms fV
 006E           ;              i -> R20,R21
 006E           ;              n -> R10,R11
                        .even
 006E           _delay_nms::
 006E 0E940000          xcall push_xgset300C
 0072 5801              movw R10,R16
 0074                   .dbline -1
 0074                   .dbline 365
 0074           ; } 
 0074           ; 
 0074           ; void delay_nms(unsigned int n) 
 0074           ; { 
 0074                   .dbline 367
 0074           ;  unsigned int i; 
 0074           ;  for(i=0;i<n;i++) 
 0074 4427              clr R20
 0076 5527              clr R21
 0078 03C0              xjmp L17
 007A           L14:
 007A                   .dbline 368
 007A           ;  delay_1ms(); 
 007A EFDF              xcall _delay_1ms
 007C           L15:
 007C                   .dbline 367
 007C 4F5F              subi R20,255  ; offset = 1
 007E 5F4F              sbci R21,255
 0080           L17:
 0080                   .dbline 367
 0080 4A15              cp R20,R10
 0082 5B05              cpc R21,R11
 0084 D0F3              brlo L14
 0086           X2:
 0086                   .dbline -2
 0086           L13:
 0086                   .dbline 0 ; func end
 0086 0C940000          xjmp pop_xgset300C
 008A                   .dbsym r i 20 i
 008A                   .dbsym r n 10 i
 008A                   .dbend
 008A                   .dbfunc e port_init _port_init fV
                        .even
 008A           _port_init::
 008A                   .dbline -1
 008A                   .dbline 374
 008A           ; }
 008A           ; 
 008A           ; 
 008A           ; //*************************设置各端口************************
 008A           ; void port_init(void)
 008A           ; {
 008A                   .dbline 375
 008A           ;  PORTA = 0x00;//0000 0001
 008A 2224              clr R2
 008C 2BBA              out 0x1b,R2
 008E                   .dbline 376
 008E           ;  DDRA  = 0x00;//0000 0001 PA0口输出，高电平
 008E 2ABA              out 0x1a,R2
 0090                   .dbline 379
 0090           ; // PORTB = 0xFF;//0xF0;//1111 0000
 0090           ; // DDRB  = 0xFF;//0xF0;//1111 0000
 0090           ;  PORTC = 0x00; //m103 output only
 0090 25BA              out 0x15,R2
 0092                   .dbline 380
 0092           ;  DDRC  = 0x00;
 0092 24BA              out 0x14,R2
 0094                   .dbline 385
 0094           ; // PORTD = 0xFF;//0xD0;//1101 0000
 0094           ; // DDRD  = 0xFF;//0xD0;//1101 0000
 0094           ; // PORTE = 0xFE;//1111 1110
 0094           ; // DDRE  = 0xFE;//1111 1110
 0094           ;   PORTE = 0xFE;//灯2，PE2
 0094 8EEF              ldi R24,254
 0096 83B9              out 0x3,R24
 0098                   .dbline 386
 0098           ;  DDRE  = 0xFE;
 0098 82B9              out 0x2,R24
 009A                   .dbline 394
 009A           ; // PORTF = 0xFF;//0x00;
 009A           ; // DDRF  = 0xFF;//0x00;
 009A           ; // PORTG = 0x1F;//0x00;
 009A           ; // DDRG  = 0x1F;//0x00;
 009A           ; ///////////////
 009A           ; // PORTB = 0xF0;//1111 0000
 009A           ; // DDRB  = 0xF0;//1111 0000
 009A           ;  PORTB = 0xF4;//灯1，PB2，&&&&&&&&&&&&&&&&&&
 009A 84EF              ldi R24,244
 009C 88BB              out 0x18,R24
 009E                   .dbline 395
 009E           ;  DDRB  = 0xF4;
 009E 87BB              out 0x17,R24
 00A0                   .dbline 398
 00A0           ; // PORTD = 0xD0;//1101 0000
 00A0           ; // DDRD  = 0xD0;//1101 0000
 00A0           ;  PORTD=0xfc;//0xfc;//xxxx xx00
 00A0 8CEF              ldi R24,252
 00A2 82BB              out 0x12,R24
 00A4                   .dbline 399
 00A4           ;  DDRD=0xfc;//xxxx xx00
 00A4 81BB              out 0x11,R24
 00A6                   .dbline 402
 00A6           ;  //PORTF = 0x00;
 00A6           ;  //DDRF  = 0x00;
 00A6           ;  PORTF = 0xFF;
 00A6 8FEF              ldi R24,255
 00A8 80936200          sts 98,R24
 00AC                   .dbline 403
 00AC           ;  DDRF  = 0x0F;
 00AC 8FE0              ldi R24,15
 00AE 80936100          sts 97,R24
 00B2                   .dbline 406
 00B2           ; 
 00B2           ;  
 00B2           ;  PORTG = 0x00;
 00B2 20926500          sts 101,R2
 00B6                   .dbline 407
 00B6           ;  DDRG  = 0x00;
 00B6 20926400          sts 100,R2
 00BA                   .dbline -2
 00BA           L18:
 00BA                   .dbline 0 ; func end
 00BA 0895              ret
 00BC                   .dbend
 00BC                   .dbfunc e timer3_init _timer3_init fV
                        .even
 00BC           _timer3_init::
 00BC                   .dbline -1
 00BC                   .dbline 414
 00BC           ; 
 00BC           ; 
 00BC           ; }
 00BC           ; 
 00BC           ; //*****************************TIMER3 初始化***************************
 00BC           ; void timer3_init(void)
 00BC           ; {
 00BC                   .dbline 415
 00BC           ;  TCCR3B= 0x00; //stop
 00BC 2224              clr R2
 00BE 20928A00          sts 138,R2
 00C2                   .dbline 416
 00C2           ;  TCNT3H= 0x00 /*INVALID SETTING*/; //setup
 00C2 20928900          sts 137,R2
 00C6                   .dbline 417
 00C6           ;  TCNT3L= 0x00 /*INVALID SETTING*/;
 00C6 20928800          sts 136,R2
 00CA                   .dbline 418
 00CA           ;  OCR3AH= 0x00 /*INVALID SETTING*/;
 00CA 20928700          sts 135,R2
 00CE                   .dbline 419
 00CE           ;  OCR3AL= 0x00;
 00CE 20928600          sts 134,R2
 00D2                   .dbline 420
 00D2           ;  OCR3BH= 0x00 /*INVALID SETTING*/;
 00D2 20928500          sts 133,R2
 00D6                   .dbline 421
 00D6           ;  OCR3BL= 0x00;
 00D6 20928400          sts 132,R2
 00DA                   .dbline 422
 00DA           ;  OCR3CH= 0x00 /*INVALID SETTING*/;
 00DA 20928300          sts 131,R2
 00DE                   .dbline 423
 00DE           ;  OCR3CL= 0x00;
 00DE 20928200          sts 130,R2
 00E2                   .dbline 424
 00E2           ;  TCCR3A= 0xFE;
 00E2 8EEF              ldi R24,254
 00E4 80938B00          sts 139,R24
 00E8                   .dbline 425
 00E8           ;  TCCR3B= 0x1A; //start Timer用8分频,快速PWM模式
 00E8 8AE1              ldi R24,26
 00EA 80938A00          sts 138,R24
 00EE                   .dbline -2
 00EE           L19:
 00EE                   .dbline 0 ; func end
 00EE 0895              ret
 00F0                   .dbend
 00F0                   .dbfunc e timer1_init _timer1_init fV
                        .even
 00F0           _timer1_init::
 00F0                   .dbline -1
 00F0                   .dbline 430
 00F0           ; }
 00F0           ; 
 00F0           ; //*****************************TIMER1 初始化***************************
 00F0           ; void timer1_init(void)
 00F0           ; {
 00F0                   .dbline 431
 00F0           ;  TCCR1B= 0x00; //stop
 00F0 2224              clr R2
 00F2 2EBC              out 0x2e,R2
 00F4                   .dbline 432
 00F4           ;  TCNT1H= 0x00 /*INVALID SETTING*/; //setup
 00F4 2DBC              out 0x2d,R2
 00F6                   .dbline 433
 00F6           ;  TCNT1L= 0x00 /*INVALID SETTING*/;
 00F6 2CBC              out 0x2c,R2
 00F8                   .dbline 434
 00F8           ;  OCR1AH= 0x00 /*INVALID SETTING*/;
 00F8 2BBC              out 0x2b,R2
 00FA                   .dbline 435
 00FA           ;  OCR1AL= 0x00;
 00FA 2ABC              out 0x2a,R2
 00FC                   .dbline 436
 00FC           ;  OCR1BH= 0x00 /*INVALID SETTING*/;
 00FC 29BC              out 0x29,R2
 00FE                   .dbline 437
 00FE           ;  OCR1BL= 0x00;
 00FE 28BC              out 0x28,R2
 0100                   .dbline 438
 0100           ;  OCR1CH= 0x00 /*INVALID SETTING*/;
 0100 20927900          sts 121,R2
 0104                   .dbline 439
 0104           ;  OCR1CL= 0x00;
 0104 20927800          sts 120,R2
 0108                   .dbline 440
 0108           ;  TCCR1A= 0xFE;
 0108 8EEF              ldi R24,254
 010A 8FBD              out 0x2f,R24
 010C                   .dbline 441
 010C           ;  TCCR1B= 0x1A; //start Timer用8分频,快速PWM模式
 010C 8AE1              ldi R24,26
 010E 8EBD              out 0x2e,R24
 0110                   .dbline -2
 0110           L20:
 0110                   .dbline 0 ; func end
 0110 0895              ret
 0112                   .dbend
 0112                   .dbfunc e uart0_init _uart0_init fV
                        .even
 0112           _uart0_init::
 0112                   .dbline -1
 0112                   .dbline 448
 0112           ; }
 0112           ; 
 0112           ; 
 0112           ; 
 0112           ; 
 0112           ; void uart0_init(void)
 0112           ; {
 0112                   .dbline 449
 0112           ;  UCSR0B = 0x00; //disable while setting baud rate
 0112 2224              clr R2
 0114 2AB8              out 0xa,R2
 0116                   .dbline 450
 0116           ;  UCSR0A = 0x00;
 0116 2BB8              out 0xb,R2
 0118                   .dbline 451
 0118           ;  UCSR0C = 0x06;       //*接受和发送数据帧的数据位字符长度保留
 0118 86E0              ldi R24,6
 011A 80939500          sts 149,R24
 011E                   .dbline 453
 011E           ;  
 011E           ;  UBRR0H = 0x00; //set baud rate hi
 011E 20929000          sts 144,R2
 0122                   .dbline 454
 0122           ;  UBRR0L = 0x33; //set baud rate lo
 0122 83E3              ldi R24,51
 0124 89B9              out 0x9,R24
 0126                   .dbline 456
 0126           ;   
 0126           ;  UCSR0A = 0x00; //enable
 0126 2BB8              out 0xb,R2
 0128                   .dbline 457
 0128           ;  UCSR0B = 0x98;
 0128 88E9              ldi R24,152
 012A 8AB9              out 0xa,R24
 012C                   .dbline -2
 012C           L21:
 012C                   .dbline 0 ; func end
 012C 0895              ret
 012E                   .dbend
 012E                   .dbfunc e init_devices _init_devices fV
                        .even
 012E           _init_devices::
 012E                   .dbline -1
 012E                   .dbline 462
 012E           ; }
 012E           ; 
 012E           ; //*************************initialize all peripherals***************
 012E           ; void init_devices(void)
 012E           ; {
 012E                   .dbline 464
 012E           ;  //stop errant interrupts until set up
 012E           ;  CLI(); //disable all interrupts,屏蔽所有中断
 012E F894              cli
 0130                   .dbline 465
 0130           ;  XDIV  = 0x00; //xtal divider,系统时钟分频控制寄存器
 0130 2224              clr R2
 0132 2CBE              out 0x3c,R2
 0134                   .dbline 466
 0134           ;  XMCRA = 0x00; //external memory，外部扩展存储器控制寄存器A
 0134 20926D00          sts 109,R2
 0138                   .dbline 467
 0138           ;  port_init();//端口初始化
 0138 A8DF              xcall _port_init
 013A                   .dbline 470
 013A           ;  //timer3_init();//定时器3初始化
 013A           ;  //timer1_init();//定时器1初始化
 013A           ;  uart0_init();//串口通信中断
 013A EBDF              xcall _uart0_init
 013C                   .dbline 471
 013C           ;  MCUCR = 0x00;//MCU控制寄存器，57页
 013C 2224              clr R2
 013E 25BE              out 0x35,R2
 0140                   .dbline 473
 0140           ;  //EICRA = 0x03; //extended ext ints，外部中断控制寄存器A
 0140           ;  EICRA=0x00;
 0140 20926A00          sts 106,R2
 0144                   .dbline 474
 0144           ;  EICRB = 0x00; //extended ext ints，外部中断控制寄存器B
 0144 2ABE              out 0x3a,R2
 0146                   .dbline 476
 0146           ;  //EIMSK = 0x01;//外部中断屏蔽寄存器
 0146           ;  EIMSK = 0x00;
 0146 29BE              out 0x39,R2
 0148                   .dbline 478
 0148           ; // TIMSK = 0x00; //timer interrupt sources，T/C中断屏蔽寄存器
 0148           ;  TIMSK = 0x44;
 0148 84E4              ldi R24,68
 014A 87BF              out 0x37,R24
 014C                   .dbline 479
 014C           ;  ETIMSK = 0x04; //extended timer interrupt sources，扩展T/C中断屏蔽寄存器
 014C 84E0              ldi R24,4
 014E 80937D00          sts 125,R24
 0152                   .dbline 480
 0152           ;  SEI(); //re-enable interrupts
 0152 7894              sei
 0154                   .dbline -2
 0154           L22:
 0154                   .dbline 0 ; func end
 0154 0895              ret
 0156                   .dbend
 0156                   .dbfunc e senddata _senddata fV
 0156           ;           data -> R16
                        .even
 0156           _senddata::
 0156                   .dbline -1
 0156                   .dbline 488
 0156           ; }
 0156           ; 
 0156           ; 
 0156           ; 
 0156           ;  
 0156           ; 
 0156           ; void senddata(unsigned char data)
 0156           ; {
 0156           L24:
 0156                   .dbline 491
 0156           ;    /* 等待发送缓冲器为空 */
 0156           ;    while (!( UCSR0A & (1<<UDRE0)))
 0156           ;    ;
 0156           L25:
 0156                   .dbline 490
 0156 5D9B              sbis 0xb,5
 0158 FECF              rjmp L24
 015A           X3:
 015A                   .dbline 493
 015A           ;    /* 将数据放入缓冲器，发送数据*/
 015A           ;      UDR0 = data;
 015A 0CB9              out 0xc,R16
 015C                   .dbline -2
 015C           L23:
 015C                   .dbline 0 ; func end
 015C 0895              ret
 015E                   .dbsym r data 16 c
 015E                   .dbend
 015E                   .dbfunc e uart_putchar _uart_putchar fV
 015E           ;              c -> R16
                        .even
 015E           _uart_putchar::
 015E                   .dbline -1
 015E                   .dbline 498
 015E           ; }
 015E           ; 
 015E           ; 
 015E           ; void uart_putchar(char c) //发送一个字节
 015E           ; {
 015E           L28:
 015E                   .dbline 500
 015E           ;    while( !( UCSR0A & (1<<UDRE0)))
 015E           ;       ;
 015E           L29:
 015E                   .dbline 499
 015E 5D9B              sbis 0xb,5
 0160 FECF              rjmp L28
 0162           X4:
 0162                   .dbline 501
 0162           ;    UDR0=c;
 0162 0CB9              out 0xc,R16
 0164                   .dbline -2
 0164           L27:
 0164                   .dbline 0 ; func end
 0164 0895              ret
 0166                   .dbsym r c 16 c
 0166                   .dbend
 0166                   .dbfunc e uart_word _uart_word fV
 0166           ;              i -> R20,R21
 0166           ;         String -> R10,R11
                        .even
 0166           _uart_word::
 0166 0E940000          xcall push_xgset300C
 016A 5801              movw R10,R16
 016C                   .dbline -1
 016C                   .dbline 505
 016C           ; }
 016C           ; 
 016C           ; void uart_word(char String[])//发送一个字符串
 016C           ; {
 016C 07C0              xjmp L33
 016E           L32:
 016E                   .dbline 508
 016E           ;    int i;
 016E           ;    while(String[i]!='\0') 
 016E           ;    {
 016E                   .dbline 509
 016E           ;       uart_putchar(String[i]);
 016E FA01              movw R30,R20
 0170 EA0D              add R30,R10
 0172 FB1D              adc R31,R11
 0174 0081              ldd R16,z+0
 0176 F3DF              xcall _uart_putchar
 0178                   .dbline 510
 0178           ;         i++;
 0178 4F5F              subi R20,255  ; offset = 1
 017A 5F4F              sbci R21,255
 017C                   .dbline 511
 017C           ;    }
 017C           L33:
 017C                   .dbline 507
 017C FA01              movw R30,R20
 017E EA0D              add R30,R10
 0180 FB1D              adc R31,R11
 0182 2080              ldd R2,z+0
 0184 2220              tst R2
 0186 99F7              brne L32
 0188           X5:
 0188                   .dbline -2
 0188           L31:
 0188                   .dbline 0 ; func end
 0188 0C940000          xjmp pop_xgset300C
 018C                   .dbsym r i 20 I
 018C                   .dbsym r String 10 pc
 018C                   .dbend
 018C                   .dbfunc e Sin _Sin fD
 018C           ;              y -> y+8
 018C           ;           temp -> y+4
 018C           ;              x -> y+0
 018C           ;  Offset_degree -> R10,R11
 018C           ;          speed -> R12
 018C           ;        instant -> R14
                        .even
 018C           _Sin::
 018C 0E940000          xcall push_xgset00FC
 0190 C22E              mov R12,R18
 0192 E02E              mov R14,R16
 0194 2C97              sbiw R28,12
 0196 AA88              ldd R10,y+18
 0198 BB88              ldd R11,y+19
 019A                   .dbline -1
 019A                   .dbline 517
 019A           ; }
 019A           ; 
 019A           ; 
 019A           ; //*********************sin计算***************************
 019A           ; double Sin(unsigned char instant, unsigned char speed, int Offset_degree)
 019A           ; {
 019A                   .dbline 521
 019A           ; 
 019A           ;       double x,y;
 019A           ;       double temp;
 019A           ;         if(speed == 0)
 019A CC20              tst R12
 019C 29F4              brne L36
 019E           X6:
 019E                   .dbline 522
 019E           ;           return 0;
 019E 00E0              ldi R16,<L6
 01A0 10E0              ldi R17,>L6
 01A2 0E940000          xcall elpm32
 01A6 9AC1              xjmp L35
 01A8           L36:
 01A8                   .dbline 524
 01A8           ;         else
 01A8           ;         {
 01A8                   .dbline 525
 01A8           ;           x = PI *2.0 *  ((double)instant / (double)speed) - PI * (double)Offset_degree / 180.0;       
 01A8 00E0              ldi R16,<L38
 01AA 10E0              ldi R17,>L38
 01AC 0E940000          xcall elpm32
 01B0 1801              movw R2,R16
 01B2 2901              movw R4,R18
 01B4 0E2D              mov R16,R14
 01B6 1127              clr R17
 01B8 0E940000          xcall int2fp
 01BC 3801              movw R6,R16
 01BE 4901              movw R8,R18
 01C0 0C2D              mov R16,R12
 01C2 1127              clr R17
 01C4 0E940000          xcall int2fp
 01C8 3A93              st -y,R19
 01CA 2A93              st -y,R18
 01CC 1A93              st -y,R17
 01CE 0A93              st -y,R16
 01D0 8301              movw R16,R6
 01D2 9401              movw R18,R8
 01D4 0E940000          xcall fpdiv2x
 01D8 8101              movw R16,R2
 01DA 9201              movw R18,R4
 01DC 0E940000          xcall fpmule2
 01E0 1801              movw R2,R16
 01E2 2901              movw R4,R18
 01E4 00E0              ldi R16,<L39
 01E6 10E0              ldi R17,>L39
 01E8 0E940000          xcall elpm32
 01EC 3801              movw R6,R16
 01EE 4901              movw R8,R18
 01F0 8501              movw R16,R10
 01F2 0E940000          xcall int2fp
 01F6 3A93              st -y,R19
 01F8 2A93              st -y,R18
 01FA 1A93              st -y,R17
 01FC 0A93              st -y,R16
 01FE 8301              movw R16,R6
 0200 9401              movw R18,R8
 0202 0E940000          xcall fpmule2
 0206 3801              movw R6,R16
 0208 4901              movw R8,R18
 020A 00E0              ldi R16,<L40
 020C 10E0              ldi R17,>L40
 020E 0E940000          xcall elpm32
 0212 3A93              st -y,R19
 0214 2A93              st -y,R18
 0216 1A93              st -y,R17
 0218 0A93              st -y,R16
 021A 8301              movw R16,R6
 021C 9401              movw R18,R8
 021E 0E940000          xcall fpdiv2x
 0222 8101              movw R16,R2
 0224 9201              movw R18,R4
 0226 0E940000          xcall fpsub2
 022A 0883              std y+0,R16
 022C 1983              std y+1,R17
 022E 2A83              std y+2,R18
 0230 3B83              std y+3,R19
 0232                   .dbline 527
 0232           ;                //100115 驹?解决滞后角超过一定范围后，电机的抖动问题         
 0232           ;          if(x>(2.0*PI))
 0232 CE01              movw R24,R28
 0234 00E0              ldi R16,<L38
 0236 10E0              ldi R17,>L38
 0238 0E940000          xcall elpm32
 023C 9A93              st -y,R25
 023E 8A93              st -y,R24
 0240 0E940000          xcall fpcmp1
 0244 ACF4              brge L41
 0246           X7:
 0246                   .dbline 528
 0246           ;             x=x-2.0*PI;
 0246 2880              ldd R2,y+0
 0248 3980              ldd R3,y+1
 024A 4A80              ldd R4,y+2
 024C 5B80              ldd R5,y+3
 024E 00E0              ldi R16,<L38
 0250 10E0              ldi R17,>L38
 0252 0E940000          xcall elpm32
 0256 3A93              st -y,R19
 0258 2A93              st -y,R18
 025A 1A93              st -y,R17
 025C 0A93              st -y,R16
 025E 8101              movw R16,R2
 0260 9201              movw R18,R4
 0262 0E940000          xcall fpsub2
 0266 0883              std y+0,R16
 0268 1983              std y+1,R17
 026A 2A83              std y+2,R18
 026C 3B83              std y+3,R19
 026E 25C0              xjmp L42
 0270           L41:
 0270                   .dbline 529
 0270           ;         else if(x<0.0)
 0270 2880              ldd R2,y+0
 0272 3980              ldd R3,y+1
 0274 4A80              ldd R4,y+2
 0276 5B80              ldd R5,y+3
 0278 00E0              ldi R16,<L6
 027A 10E0              ldi R17,>L6
 027C 0E940000          xcall elpm32
 0280 3A93              st -y,R19
 0282 2A93              st -y,R18
 0284 1A93              st -y,R17
 0286 0A93              st -y,R16
 0288 8101              movw R16,R2
 028A 9201              movw R18,R4
 028C 0E940000          xcall fpcmp2
 0290 A4F4              brge L43
 0292           X8:
 0292                   .dbline 530
 0292           ;             x=x+2.0*PI;
 0292 2880              ldd R2,y+0
 0294 3980              ldd R3,y+1
 0296 4A80              ldd R4,y+2
 0298 5B80              ldd R5,y+3
 029A 00E0              ldi R16,<L38
 029C 10E0              ldi R17,>L38
 029E 0E940000          xcall elpm32
 02A2 3A93              st -y,R19
 02A4 2A93              st -y,R18
 02A6 1A93              st -y,R17
 02A8 0A93              st -y,R16
 02AA 8101              movw R16,R2
 02AC 9201              movw R18,R4
 02AE 0E940000          xcall fpadd2
 02B2 0883              std y+0,R16
 02B4 1983              std y+1,R17
 02B6 2A83              std y+2,R18
 02B8 3B83              std y+3,R19
 02BA           L43:
 02BA           L42:
 02BA                   .dbline 532
 02BA           ; 
 02BA           ;                 if(x<=(PI/2.0))
 02BA CE01              movw R24,R28
 02BC 00E0              ldi R16,<L47
 02BE 10E0              ldi R17,>L47
 02C0 0E940000          xcall elpm32
 02C4 9A93              st -y,R25
 02C6 8A93              st -y,R24
 02C8 0E940000          xcall fpcmp1
 02CC 34F1              brlt L45
 02CE           X9:
 02CE                   .dbline 533
 02CE           ;               y=x-x*x*x/6.0;//sinx,正数
 02CE 2880              ldd R2,y+0
 02D0 3980              ldd R3,y+1
 02D2 4A80              ldd R4,y+2
 02D4 5B80              ldd R5,y+3
 02D6 8101              movw R16,R2
 02D8 9201              movw R18,R4
 02DA CE01              movw R24,R28
 02DC 9A93              st -y,R25
 02DE 8A93              st -y,R24
 02E0 0E940000          xcall fpmule1
 02E4 CE01              movw R24,R28
 02E6 9A93              st -y,R25
 02E8 8A93              st -y,R24
 02EA 0E940000          xcall fpmule1
 02EE 3801              movw R6,R16
 02F0 4901              movw R8,R18
 02F2 00E0              ldi R16,<L48
 02F4 10E0              ldi R17,>L48
 02F6 0E940000          xcall elpm32
 02FA 3A93              st -y,R19
 02FC 2A93              st -y,R18
 02FE 1A93              st -y,R17
 0300 0A93              st -y,R16
 0302 8301              movw R16,R6
 0304 9401              movw R18,R8
 0306 0E940000          xcall fpdiv2x
 030A 8101              movw R16,R2
 030C 9201              movw R18,R4
 030E 0E940000          xcall fpsub2
 0312 0887              std y+8,R16
 0314 1987              std y+9,R17
 0316 2A87              std y+10,R18
 0318 3B87              std y+11,R19
 031A           L45:
 031A                   .dbline 535
 031A           ; 
 031A           ;           if(x>(PI/2.0)&&x<=PI)
 031A CE01              movw R24,R28
 031C 00E0              ldi R16,<L47
 031E 10E0              ldi R17,>L47
 0320 0E940000          xcall elpm32
 0324 9A93              st -y,R25
 0326 8A93              st -y,R24
 0328 0E940000          xcall fpcmp1
 032C 0CF0              brlt X15
 032E 40C0              xjmp L49
 0330           X15:
 0330           X10:
 0330 CE01              movw R24,R28
 0332 00E0              ldi R16,<L39
 0334 10E0              ldi R17,>L39
 0336 0E940000          xcall elpm32
 033A 9A93              st -y,R25
 033C 8A93              st -y,R24
 033E 0E940000          xcall fpcmp1
 0342 0CF4              brge X16
 0344 35C0              xjmp L49
 0346           X16:
 0346           X11:
 0346                   .dbline 536
 0346           ;          {
 0346                   .dbline 537
 0346           ;               temp=PI-x;
 0346 00E0              ldi R16,<L39
 0348 10E0              ldi R17,>L39
 034A 0E940000          xcall elpm32
 034E CE01              movw R24,R28
 0350 9A93              st -y,R25
 0352 8A93              st -y,R24
 0354 0E940000          xcall fpsub1
 0358 0C83              std y+4,R16
 035A 1D83              std y+5,R17
 035C 2E83              std y+6,R18
 035E 3F83              std y+7,R19
 0360                   .dbline 538
 0360           ;               y=temp-temp*temp*temp/6.0;//正数
 0360 2C80              ldd R2,y+4
 0362 3D80              ldd R3,y+5
 0364 4E80              ldd R4,y+6
 0366 5F80              ldd R5,y+7
 0368 8101              movw R16,R2
 036A 9201              movw R18,R4
 036C CE01              movw R24,R28
 036E 0496              adiw R24,4
 0370 9A93              st -y,R25
 0372 8A93              st -y,R24
 0374 0E940000          xcall fpmule1
 0378 CE01              movw R24,R28
 037A 0496              adiw R24,4
 037C 9A93              st -y,R25
 037E 8A93              st -y,R24
 0380 0E940000          xcall fpmule1
 0384 3801              movw R6,R16
 0386 4901              movw R8,R18
 0388 00E0              ldi R16,<L48
 038A 10E0              ldi R17,>L48
 038C 0E940000          xcall elpm32
 0390 3A93              st -y,R19
 0392 2A93              st -y,R18
 0394 1A93              st -y,R17
 0396 0A93              st -y,R16
 0398 8301              movw R16,R6
 039A 9401              movw R18,R8
 039C 0E940000          xcall fpdiv2x
 03A0 8101              movw R16,R2
 03A2 9201              movw R18,R4
 03A4 0E940000          xcall fpsub2
 03A8 0887              std y+8,R16
 03AA 1987              std y+9,R17
 03AC 2A87              std y+10,R18
 03AE 3B87              std y+11,R19
 03B0                   .dbline 539
 03B0           ;          }
 03B0           L49:
 03B0                   .dbline 541
 03B0           ; 
 03B0           ;           if(x>PI&&x<=(PI*3.0/2.0))
 03B0 CE01              movw R24,R28
 03B2 00E0              ldi R16,<L39
 03B4 10E0              ldi R17,>L39
 03B6 0E940000          xcall elpm32
 03BA 9A93              st -y,R25
 03BC 8A93              st -y,R24
 03BE 0E940000          xcall fpcmp1
 03C2 0CF0              brlt X17
 03C4 47C0              xjmp L51
 03C6           X17:
 03C6           X12:
 03C6 CE01              movw R24,R28
 03C8 00E0              ldi R16,<L53
 03CA 10E0              ldi R17,>L53
 03CC 0E940000          xcall elpm32
 03D0 9A93              st -y,R25
 03D2 8A93              st -y,R24
 03D4 0E940000          xcall fpcmp1
 03D8 0CF4              brge X18
 03DA 3CC0              xjmp L51
 03DC           X18:
 03DC           X13:
 03DC                   .dbline 542
 03DC           ;          {
 03DC                   .dbline 543
 03DC           ;               temp=x-PI;
 03DC 2880              ldd R2,y+0
 03DE 3980              ldd R3,y+1
 03E0 4A80              ldd R4,y+2
 03E2 5B80              ldd R5,y+3
 03E4 00E0              ldi R16,<L39
 03E6 10E0              ldi R17,>L39
 03E8 0E940000          xcall elpm32
 03EC 3A93              st -y,R19
 03EE 2A93              st -y,R18
 03F0 1A93              st -y,R17
 03F2 0A93              st -y,R16
 03F4 8101              movw R16,R2
 03F6 9201              movw R18,R4
 03F8 0E940000          xcall fpsub2
 03FC 0C83              std y+4,R16
 03FE 1D83              std y+5,R17
 0400 2E83              std y+6,R18
 0402 3F83              std y+7,R19
 0404                   .dbline 544
 0404           ;               y=temp*temp*temp/6.0-temp;//负数
 0404 0C81              ldd R16,y+4
 0406 1D81              ldd R17,y+5
 0408 2E81              ldd R18,y+6
 040A 3F81              ldd R19,y+7
 040C CE01              movw R24,R28
 040E 0496              adiw R24,4
 0410 9A93              st -y,R25
 0412 8A93              st -y,R24
 0414 0E940000          xcall fpmule1
 0418 CE01              movw R24,R28
 041A 0496              adiw R24,4
 041C 9A93              st -y,R25
 041E 8A93              st -y,R24
 0420 0E940000          xcall fpmule1
 0424 1801              movw R2,R16
 0426 2901              movw R4,R18
 0428 00E0              ldi R16,<L48
 042A 10E0              ldi R17,>L48
 042C 0E940000          xcall elpm32
 0430 3A93              st -y,R19
 0432 2A93              st -y,R18
 0434 1A93              st -y,R17
 0436 0A93              st -y,R16
 0438 8101              movw R16,R2
 043A 9201              movw R18,R4
 043C 0E940000          xcall fpdiv2
 0440 CE01              movw R24,R28
 0442 0496              adiw R24,4
 0444 9A93              st -y,R25
 0446 8A93              st -y,R24
 0448 0E940000          xcall fpsub1
 044C 0887              std y+8,R16
 044E 1987              std y+9,R17
 0450 2A87              std y+10,R18
 0452 3B87              std y+11,R19
 0454                   .dbline 545
 0454           ;          }
 0454           L51:
 0454                   .dbline 547
 0454           ; 
 0454           ;         if(x>(PI*3.0/2.0))
 0454 CE01              movw R24,R28
 0456 00E0              ldi R16,<L53
 0458 10E0              ldi R17,>L53
 045A 0E940000          xcall elpm32
 045E 9A93              st -y,R25
 0460 8A93              st -y,R24
 0462 0E940000          xcall fpcmp1
 0466 0CF0              brlt X19
 0468 35C0              xjmp L54
 046A           X19:
 046A           X14:
 046A                   .dbline 548
 046A           ;          {
 046A                   .dbline 549
 046A           ;               temp=2.0*PI-x;
 046A 00E0              ldi R16,<L38
 046C 10E0              ldi R17,>L38
 046E 0E940000          xcall elpm32
 0472 CE01              movw R24,R28
 0474 9A93              st -y,R25
 0476 8A93              st -y,R24
 0478 0E940000          xcall fpsub1
 047C 0C83              std y+4,R16
 047E 1D83              std y+5,R17
 0480 2E83              std y+6,R18
 0482 3F83              std y+7,R19
 0484                   .dbline 550
 0484           ;               y=temp*temp*temp/6.0-temp;//负数
 0484 0C81              ldd R16,y+4
 0486 1D81              ldd R17,y+5
 0488 2E81              ldd R18,y+6
 048A 3F81              ldd R19,y+7
 048C CE01              movw R24,R28
 048E 0496              adiw R24,4
 0490 9A93              st -y,R25
 0492 8A93              st -y,R24
 0494 0E940000          xcall fpmule1
 0498 CE01              movw R24,R28
 049A 0496              adiw R24,4
 049C 9A93              st -y,R25
 049E 8A93              st -y,R24
 04A0 0E940000          xcall fpmule1
 04A4 1801              movw R2,R16
 04A6 2901              movw R4,R18
 04A8 00E0              ldi R16,<L48
 04AA 10E0              ldi R17,>L48
 04AC 0E940000          xcall elpm32
 04B0 3A93              st -y,R19
 04B2 2A93              st -y,R18
 04B4 1A93              st -y,R17
 04B6 0A93              st -y,R16
 04B8 8101              movw R16,R2
 04BA 9201              movw R18,R4
 04BC 0E940000          xcall fpdiv2
 04C0 CE01              movw R24,R28
 04C2 0496              adiw R24,4
 04C4 9A93              st -y,R25
 04C6 8A93              st -y,R24
 04C8 0E940000          xcall fpsub1
 04CC 0887              std y+8,R16
 04CE 1987              std y+9,R17
 04D0 2A87              std y+10,R18
 04D2 3B87              std y+11,R19
 04D4                   .dbline 551
 04D4           ;          }
 04D4           L54:
 04D4                   .dbline 553
 04D4           ; 
 04D4           ;        return y;
 04D4 0885              ldd R16,y+8
 04D6 1985              ldd R17,y+9
 04D8 2A85              ldd R18,y+10
 04DA 3B85              ldd R19,y+11
 04DC                   .dbline -2
 04DC           L35:
 04DC                   .dbline 0 ; func end
 04DC 2C96              adiw R28,12
 04DE 0C940000          xjmp pop_xgset00FC
 04E2                   .dbsym l y 8 D
 04E2                   .dbsym l temp 4 D
 04E2                   .dbsym l x 0 D
 04E2                   .dbsym r Offset_degree 10 I
 04E2                   .dbsym r speed 12 c
 04E2                   .dbsym r instant 14 c
 04E2                   .dbend
 04E2                   .dbfunc e init_static_offset _init_static_offset fV
 04E2           ;              i -> R20
                        .even
 04E2           _init_static_offset::
 04E2 4A93              st -y,R20
 04E4                   .dbline -1
 04E4                   .dbline 560
 04E4           ; 
 04E4           ;         }
 04E4           ; }
 04E4           ; 
 04E4           ; //**********************************静态偏移转换为控制量*************************
 04E4           ; void init_static_offset(void)//括号内添加void
 04E4           ; {
 04E4                   .dbline 563
 04E4           ;   unsigned char i;
 04E4           ; 
 04E4           ;   for(i=0; i<Joint_Num; i++)
 04E4 4427              clr R20
 04E6 22C0              xjmp L60
 04E8           L57:
 04E8                   .dbline 564
 04E8           ;   {
 04E8                   .dbline 565
 04E8           ;        Static_Offset_value[i] =((int) ((Static_Offset_degree[i] * 10) * FLK)>>3)-1;//1度10us
 04E8 80E0              ldi R24,<_Static_Offset_degree
 04EA 90E0              ldi R25,>_Static_Offset_degree
 04EC E42F              mov R30,R20
 04EE FF27              clr R31
 04F0 E80F              add R30,R24
 04F2 F91F              adc R31,R25
 04F4 1081              ldd R17,z+0
 04F6 0AE0              ldi R16,10
 04F8 0103              mulsu R16,R17
 04FA C001              movw R24,R0
 04FC 880F              lsl R24
 04FE 991F              rol R25
 0500 880F              lsl R24
 0502 991F              rol R25
 0504 880F              lsl R24
 0506 991F              rol R25
 0508 9595              asr R25
 050A 8795              ror R24
 050C 9595              asr R25
 050E 8795              ror R24
 0510 9595              asr R25
 0512 8795              ror R24
 0514 0197              sbiw R24,1
 0516 E0E0              ldi R30,<_Static_Offset_value
 0518 F0E0              ldi R31,>_Static_Offset_value
 051A A42F              mov R26,R20
 051C BB27              clr R27
 051E AA0F              lsl R26
 0520 BB1F              rol R27
 0522 AE0F              add R26,R30
 0524 BF1F              adc R27,R31
 0526 8D93              st x+,R24
 0528 9C93              st x,R25
 052A                   .dbline 566
 052A           ;   }
 052A           L58:
 052A                   .dbline 563
 052A 4395              inc R20
 052C           L60:
 052C                   .dbline 563
 052C 4330              cpi R20,3
 052E E0F2              brlo L57
 0530           X20:
 0530                   .dbline -2
 0530           L56:
 0530                   .dbline 0 ; func end
 0530 4991              ld R20,y+
 0532 0895              ret
 0534                   .dbsym r i 20 c
 0534                   .dbend
 0534                   .dbfunc e init_dynamic_offset _init_dynamic_offset fV
 0534           ;              i -> R20
                        .even
 0534           _init_dynamic_offset::
 0534 4A93              st -y,R20
 0536                   .dbline -1
 0536                   .dbline 571
 0536           ; }
 0536           ; 
 0536           ; //**********************************动态偏移转换为控制量*************************
 0536           ; void init_dynamic_offset(void)//括号内添加void
 0536           ; {
 0536                   .dbline 574
 0536           ;   unsigned char i;
 0536           ;   
 0536           ;    for(i=0; i<Joint_Num; i++)
 0536 4427              clr R20
 0538 25C0              xjmp L65
 053A           L62:
 053A                   .dbline 575
 053A           ;    {
 053A                   .dbline 576
 053A           ;    Dynamic_Offset_value[i] = ((int) ((Dynamic_Offset_degree[i] * 10) * FLK)>>3)-1;
 053A 242E              mov R2,R20
 053C 3324              clr R3
 053E 220C              lsl R2
 0540 331C              rol R3
 0542 80E0              ldi R24,<_Dynamic_Offset_degree
 0544 90E0              ldi R25,>_Dynamic_Offset_degree
 0546 F101              movw R30,R2
 0548 E80F              add R30,R24
 054A F91F              adc R31,R25
 054C 2081              ldd R18,z+0
 054E 3181              ldd R19,z+1
 0550 0AE0              ldi R16,10
 0552 10E0              ldi R17,0
 0554 0E940000          xcall empy16s
 0558 C801              movw R24,R16
 055A 880F              lsl R24
 055C 991F              rol R25
 055E 880F              lsl R24
 0560 991F              rol R25
 0562 880F              lsl R24
 0564 991F              rol R25
 0566 9595              asr R25
 0568 8795              ror R24
 056A 9595              asr R25
 056C 8795              ror R24
 056E 9595              asr R25
 0570 8795              ror R24
 0572 0197              sbiw R24,1
 0574 E0E0              ldi R30,<_Dynamic_Offset_value
 0576 F0E0              ldi R31,>_Dynamic_Offset_value
 0578 D101              movw R26,R2
 057A AE0F              add R26,R30
 057C BF1F              adc R27,R31
 057E 8D93              st x+,R24
 0580 9C93              st x,R25
 0582                   .dbline 577
 0582           ;    }
 0582           L63:
 0582                   .dbline 574
 0582 4395              inc R20
 0584           L65:
 0584                   .dbline 574
 0584 4330              cpi R20,3
 0586 C8F2              brlo L62
 0588           X21:
 0588                   .dbline -2
 0588           L61:
 0588                   .dbline 0 ; func end
 0588 4991              ld R20,y+
 058A 0895              ret
 058C                   .dbsym r i 20 c
 058C                   .dbend
 058C                   .dbfunc e calculate_data _calculate_data fV
 058C           ;              i -> R10
                        .even
 058C           _calculate_data::
 058C 0E940000          xcall push_xgsetF03C
 0590 2297              sbiw R28,2
 0592                   .dbline -1
 0592                   .dbline 582
 0592           ; }
 0592           ; //***********************************计算最终控制量******************************
 0592           ; 
 0592           ; void calculate_data(void)   //算出每次溢出中断改动的OCRnX值//括号内添加void
 0592           ; {
 0592                   .dbline 584
 0592           ;   unsigned char i;
 0592           ;   if(d_change_t_v==1)//*方向改变时置1，将实时偏移角赋给last作为前一状态偏移角
 0592 80910E02          lds R24,_d_change_t_v
 0596 8130              cpi R24,1
 0598 E1F4              brne L67
 059A           X22:
 059A                   .dbline 585
 059A           ;   {
 059A                   .dbline 586
 059A           ;      d_change_t_v=0;
 059A 2224              clr R2
 059C 20920E02          sts _d_change_t_v,R2
 05A0                   .dbline 587
 05A0           ;        for(i=0;i<Joint_Num;i++)
 05A0 AA24              clr R10
 05A2 14C0              xjmp L72
 05A4           L69:
 05A4                   .dbline 588
 05A4           ;        {
 05A4                   .dbline 589
 05A4           ;          Dynamic_Offset_value_last[i]=Dynamic_Offset_value_t[i];
 05A4 2A2C              mov R2,R10
 05A6 3324              clr R3
 05A8 220C              lsl R2
 05AA 331C              rol R3
 05AC 2101              movw R4,R2
 05AE 80E0              ldi R24,<_Dynamic_Offset_value_t
 05B0 90E0              ldi R25,>_Dynamic_Offset_value_t
 05B2 F101              movw R30,R2
 05B4 E80F              add R30,R24
 05B6 F91F              adc R31,R25
 05B8 2080              ldd R2,z+0
 05BA 3180              ldd R3,z+1
 05BC 80E0              ldi R24,<_Dynamic_Offset_value_last
 05BE 90E0              ldi R25,>_Dynamic_Offset_value_last
 05C0 F201              movw R30,R4
 05C2 E80F              add R30,R24
 05C4 F91F              adc R31,R25
 05C6 3182              std z+1,R3
 05C8 2082              std z+0,R2
 05CA                   .dbline 590
 05CA           ;      }
 05CA           L70:
 05CA                   .dbline 587
 05CA A394              inc R10
 05CC           L72:
 05CC                   .dbline 587
 05CC 8A2D              mov R24,R10
 05CE 8330              cpi R24,3
 05D0 48F3              brlo L69
 05D2           X23:
 05D2                   .dbline 591
 05D2           ;   }
 05D2           L67:
 05D2                   .dbline 592
 05D2           ;   if((d_change_t==1)&&(t_dynamic>0)&&(t_dynamic<=(Speed_dynamic/2)))//过渡状态
 05D2 80910D02          lds R24,_d_change_t
 05D6 8130              cpi R24,1
 05D8 09F0              breq X30
 05DA C8C0              xjmp L73
 05DC           X30:
 05DC           X24:
 05DC 20900500          lds R2,_t_dynamic
 05E0 80E0              ldi R24,0
 05E2 8215              cp R24,R2
 05E4 08F0              brlo X31
 05E6 C2C0              xjmp L73
 05E8           X31:
 05E8           X25:
 05E8 22E0              ldi R18,2
 05EA 30E0              ldi R19,0
 05EC 00910600          lds R16,_Speed_dynamic
 05F0 1127              clr R17
 05F2 0E940000          xcall div16s
 05F6 3324              clr R3
 05F8 0215              cp R16,R2
 05FA 1305              cpc R17,R3
 05FC 0CF4              brge X32
 05FE B6C0              xjmp L73
 0600           X32:
 0600           X26:
 0600                   .dbline 593
 0600           ;    {
 0600                   .dbline 594
 0600           ;       for(i=0;i<Joint_Num;i++)
 0600 AA24              clr R10
 0602 45C0              xjmp L78
 0604           L75:
 0604                   .dbline 595
 0604           ;         {
 0604                   .dbline 596
 0604           ;           Dynamic_Offset_value_per[i]=(Dynamic_Offset_value[i]-Dynamic_Offset_value_last[i])/(Speed_dynamic/2);
 0604 CA2C              mov R12,R10
 0606 DD24              clr R13
 0608 CC0C              lsl R12
 060A DD1C              rol R13
 060C 80E0              ldi R24,<_Dynamic_Offset_value_last
 060E 90E0              ldi R25,>_Dynamic_Offset_value_last
 0610 F601              movw R30,R12
 0612 E80F              add R30,R24
 0614 F91F              adc R31,R25
 0616 2080              ldd R2,z+0
 0618 3180              ldd R3,z+1
 061A 80E0              ldi R24,<_Dynamic_Offset_value
 061C 90E0              ldi R25,>_Dynamic_Offset_value
 061E F601              movw R30,R12
 0620 E80F              add R30,R24
 0622 F91F              adc R31,R25
 0624 4080              ldd R4,z+0
 0626 5180              ldd R5,z+1
 0628 4218              sub R4,R2
 062A 5308              sbc R5,R3
 062C 22E0              ldi R18,2
 062E 30E0              ldi R19,0
 0630 00910600          lds R16,_Speed_dynamic
 0634 1127              clr R17
 0636 0E940000          xcall div16s
 063A 9801              movw R18,R16
 063C 8201              movw R16,R4
 063E 0E940000          xcall div16s
 0642 80E0              ldi R24,<_Dynamic_Offset_value_per
 0644 90E0              ldi R25,>_Dynamic_Offset_value_per
 0646 F601              movw R30,R12
 0648 E80F              add R30,R24
 064A F91F              adc R31,R25
 064C 1183              std z+1,R17
 064E 0083              std z+0,R16
 0650                   .dbline 597
 0650           ;           Dynamic_Offset_value_t[i]=Dynamic_Offset_value_last[i]+(Dynamic_Offset_value_per[i])*t_dynamic;
 0650 CA2C              mov R12,R10
 0652 DD24              clr R13
 0654 CC0C              lsl R12
 0656 DD1C              rol R13
 0658 F601              movw R30,R12
 065A E80F              add R30,R24
 065C F91F              adc R31,R25
 065E 0081              ldd R16,z+0
 0660 1181              ldd R17,z+1
 0662 20910500          lds R18,_t_dynamic
 0666 3327              clr R19
 0668 0E940000          xcall empy16s
 066C 80E0              ldi R24,<_Dynamic_Offset_value_last
 066E 90E0              ldi R25,>_Dynamic_Offset_value_last
 0670 F601              movw R30,R12
 0672 E80F              add R30,R24
 0674 F91F              adc R31,R25
 0676 2080              ldd R2,z+0
 0678 3180              ldd R3,z+1
 067A 200E              add R2,R16
 067C 311E              adc R3,R17
 067E 80E0              ldi R24,<_Dynamic_Offset_value_t
 0680 90E0              ldi R25,>_Dynamic_Offset_value_t
 0682 F601              movw R30,R12
 0684 E80F              add R30,R24
 0686 F91F              adc R31,R25
 0688 3182              std z+1,R3
 068A 2082              std z+0,R2
 068C                   .dbline 598
 068C           ;         }
 068C           L76:
 068C                   .dbline 594
 068C A394              inc R10
 068E           L78:
 068E                   .dbline 594
 068E 8A2D              mov R24,R10
 0690 8330              cpi R24,3
 0692 08F4              brsh X33
 0694 B7CF              xjmp L75
 0696           X33:
 0696           X27:
 0696                   .dbline 599
 0696           ;       for(i=0; i< Joint_Num; i++)
 0696 AA24              clr R10
 0698 64C0              xjmp L82
 069A           L79:
 069A                   .dbline 600
 069A           ;        Joint_Angle_value[i] =MiddlePosition_value + Static_Offset_value[i]+Dynamic_Offset_value_t[i]+  ((int) (Amplitude_degree[i] * Sin( Instant, Speed, Neighbouring_Offset_degree[i]) *10*FLK)>>3)-1;
 069A 80E0              ldi R24,<_Neighbouring_Offset_degree
 069C 90E0              ldi R25,>_Neighbouring_Offset_degree
 069E EA2D              mov R30,R10
 06A0 FF27              clr R31
 06A2 E80F              add R30,R24
 06A4 F91F              adc R31,R25
 06A6 2080              ldd R2,z+0
 06A8 3324              clr R3
 06AA 3982              std y+1,R3
 06AC 2882              std y+0,R2
 06AE 20910000          lds R18,_Speed
 06B2 00910100          lds R16,_Instant
 06B6 6ADD              xcall _Sin
 06B8 1801              movw R2,R16
 06BA 2901              movw R4,R18
 06BC CA2C              mov R12,R10
 06BE DD24              clr R13
 06C0 CC0C              lsl R12
 06C2 DD1C              rol R13
 06C4 00E0              ldi R16,<L83
 06C6 10E0              ldi R17,>L83
 06C8 0E940000          xcall elpm32
 06CC 3801              movw R6,R16
 06CE 4901              movw R8,R18
 06D0 00E0              ldi R16,<L84
 06D2 10E0              ldi R17,>L84
 06D4 0E940000          xcall elpm32
 06D8 A801              movw R20,R16
 06DA B901              movw R22,R18
 06DC 80E0              ldi R24,<_Amplitude_degree
 06DE 90E0              ldi R25,>_Amplitude_degree
 06E0 EA2D              mov R30,R10
 06E2 FF27              clr R31
 06E4 E80F              add R30,R24
 06E6 F91F              adc R31,R25
 06E8 0081              ldd R16,z+0
 06EA 1127              clr R17
 06EC 0E940000          xcall int2fp
 06F0 5A92              st -y,R5
 06F2 4A92              st -y,R4
 06F4 3A92              st -y,R3
 06F6 2A92              st -y,R2
 06F8 0E940000          xcall fpmule2x
 06FC 8A01              movw R16,R20
 06FE 9B01              movw R18,R22
 0700 0E940000          xcall fpmule2x
 0704 8301              movw R16,R6
 0706 9401              movw R18,R8
 0708 0E940000          xcall fpmule2
 070C 0E940000          xcall fpint
 0710 1801              movw R2,R16
 0712 3594              asr R3
 0714 2794              ror R2
 0716 3594              asr R3
 0718 2794              ror R2
 071A 3594              asr R3
 071C 2794              ror R2
 071E 80E0              ldi R24,<_Static_Offset_value
 0720 90E0              ldi R25,>_Static_Offset_value
 0722 F601              movw R30,R12
 0724 E80F              add R30,R24
 0726 F91F              adc R31,R25
 0728 4080              ldd R4,z+0
 072A 5180              ldd R5,z+1
 072C 60900500          lds R6,_MiddlePosition_value
 0730 70900600          lds R7,_MiddlePosition_value+1
 0734 640C              add R6,R4
 0736 751C              adc R7,R5
 0738 80E0              ldi R24,<_Dynamic_Offset_value_t
 073A 90E0              ldi R25,>_Dynamic_Offset_value_t
 073C F601              movw R30,R12
 073E E80F              add R30,R24
 0740 F91F              adc R31,R25
 0742 4080              ldd R4,z+0
 0744 5180              ldd R5,z+1
 0746 640C              add R6,R4
 0748 751C              adc R7,R5
 074A C301              movw R24,R6
 074C 820D              add R24,R2
 074E 931D              adc R25,R3
 0750 0197              sbiw R24,1
 0752 E0E0              ldi R30,<_Joint_Angle_value
 0754 F0E0              ldi R31,>_Joint_Angle_value
 0756 D601              movw R26,R12
 0758 AE0F              add R26,R30
 075A BF1F              adc R27,R31
 075C 8D93              st x+,R24
 075E 9C93              st x,R25
 0760           L80:
 0760                   .dbline 599
 0760 A394              inc R10
 0762           L82:
 0762                   .dbline 599
 0762 8A2D              mov R24,R10
 0764 8330              cpi R24,3
 0766 08F4              brsh X34
 0768 98CF              xjmp L79
 076A           X34:
 076A           X28:
 076A                   .dbline 601
 076A           ;     }
 076A 6DC0              xjmp L74
 076C           L73:
 076C                   .dbline 603
 076C           ;    else//稳定状态
 076C           ;    {
 076C                   .dbline 604
 076C           ;       d_change_t=0;
 076C 2224              clr R2
 076E 20920D02          sts _d_change_t,R2
 0772                   .dbline 605
 0772           ;       for(i=0; i< Joint_Num; i++)
 0772 AA24              clr R10
 0774 64C0              xjmp L88
 0776           L85:
 0776                   .dbline 606
 0776           ;         Joint_Angle_value[i] =MiddlePosition_value + Static_Offset_value[i]+Dynamic_Offset_value[i]+  ((int) (Amplitude_degree[i] * Sin( Instant, Speed, Neighbouring_Offset_degree[i]) *10*FLK)>>3)-1;
 0776 80E0              ldi R24,<_Neighbouring_Offset_degree
 0778 90E0              ldi R25,>_Neighbouring_Offset_degree
 077A EA2D              mov R30,R10
 077C FF27              clr R31
 077E E80F              add R30,R24
 0780 F91F              adc R31,R25
 0782 2080              ldd R2,z+0
 0784 3324              clr R3
 0786 3982              std y+1,R3
 0788 2882              std y+0,R2
 078A 20910000          lds R18,_Speed
 078E 00910100          lds R16,_Instant
 0792 FCDC              xcall _Sin
 0794 1801              movw R2,R16
 0796 2901              movw R4,R18
 0798 CA2C              mov R12,R10
 079A DD24              clr R13
 079C CC0C              lsl R12
 079E DD1C              rol R13
 07A0 00E0              ldi R16,<L83
 07A2 10E0              ldi R17,>L83
 07A4 0E940000          xcall elpm32
 07A8 3801              movw R6,R16
 07AA 4901              movw R8,R18
 07AC 00E0              ldi R16,<L84
 07AE 10E0              ldi R17,>L84
 07B0 0E940000          xcall elpm32
 07B4 A801              movw R20,R16
 07B6 B901              movw R22,R18
 07B8 80E0              ldi R24,<_Amplitude_degree
 07BA 90E0              ldi R25,>_Amplitude_degree
 07BC EA2D              mov R30,R10
 07BE FF27              clr R31
 07C0 E80F              add R30,R24
 07C2 F91F              adc R31,R25
 07C4 0081              ldd R16,z+0
 07C6 1127              clr R17
 07C8 0E940000          xcall int2fp
 07CC 5A92              st -y,R5
 07CE 4A92              st -y,R4
 07D0 3A92              st -y,R3
 07D2 2A92              st -y,R2
 07D4 0E940000          xcall fpmule2x
 07D8 8A01              movw R16,R20
 07DA 9B01              movw R18,R22
 07DC 0E940000          xcall fpmule2x
 07E0 8301              movw R16,R6
 07E2 9401              movw R18,R8
 07E4 0E940000          xcall fpmule2
 07E8 0E940000          xcall fpint
 07EC 1801              movw R2,R16
 07EE 3594              asr R3
 07F0 2794              ror R2
 07F2 3594              asr R3
 07F4 2794              ror R2
 07F6 3594              asr R3
 07F8 2794              ror R2
 07FA 80E0              ldi R24,<_Static_Offset_value
 07FC 90E0              ldi R25,>_Static_Offset_value
 07FE F601              movw R30,R12
 0800 E80F              add R30,R24
 0802 F91F              adc R31,R25
 0804 4080              ldd R4,z+0
 0806 5180              ldd R5,z+1
 0808 60900500          lds R6,_MiddlePosition_value
 080C 70900600          lds R7,_MiddlePosition_value+1
 0810 640C              add R6,R4
 0812 751C              adc R7,R5
 0814 80E0              ldi R24,<_Dynamic_Offset_value
 0816 90E0              ldi R25,>_Dynamic_Offset_value
 0818 F601              movw R30,R12
 081A E80F              add R30,R24
 081C F91F              adc R31,R25
 081E 4080              ldd R4,z+0
 0820 5180              ldd R5,z+1
 0822 640C              add R6,R4
 0824 751C              adc R7,R5
 0826 C301              movw R24,R6
 0828 820D              add R24,R2
 082A 931D              adc R25,R3
 082C 0197              sbiw R24,1
 082E E0E0              ldi R30,<_Joint_Angle_value
 0830 F0E0              ldi R31,>_Joint_Angle_value
 0832 D601              movw R26,R12
 0834 AE0F              add R26,R30
 0836 BF1F              adc R27,R31
 0838 8D93              st x+,R24
 083A 9C93              st x,R25
 083C           L86:
 083C                   .dbline 605
 083C A394              inc R10
 083E           L88:
 083E                   .dbline 605
 083E 8A2D              mov R24,R10
 0840 8330              cpi R24,3
 0842 08F4              brsh X35
 0844 98CF              xjmp L85
 0846           X35:
 0846           X29:
 0846                   .dbline 607
 0846           ;    }  
 0846           L74:
 0846                   .dbline -2
 0846           L66:
 0846                   .dbline 0 ; func end
 0846 2296              adiw R28,2
 0848 0C940000          xjmp pop_xgsetF03C
 084C                   .dbsym r i 10 c
 084C                   .dbend
 084C                   .dbfunc e init_data _init_data fV
                        .even
 084C           _init_data::
 084C                   .dbline -1
 084C                   .dbline 614
 084C           ; }  //最终溢出中断写入寄存器的值
 084C           ; 
 084C           ; //*如何换算的，作用是什么？
 084C           ; 
 084C           ; //***********************************各时间量转换为控制量************************
 084C           ; void init_data(void)    // void init_data() 改为void init_data(void) wsg20120907
 084C           ; {
 084C                   .dbline 615
 084C           ;   PWM_Period_value=((int)(PWM_Period_ms*1000*FLK)>>3)-1; //pwm周期 20ms换算成计数器值
 084C 8FE1              ldi R24,19999
 084E 9EE4              ldi R25,78
 0850 90930400          sts _PWM_Period_value+1,R25
 0854 80930300          sts _PWM_Period_value,R24
 0858                   .dbline 616
 0858           ;   MiddlePosition_value=((int)(PWM_Duty_Middle_us*FLK )>>3)-1; //1500us 中间位置换成计数值
 0858 8BED              ldi R24,1499
 085A 95E0              ldi R25,5
 085C 90930600          sts _MiddlePosition_value+1,R25
 0860 80930500          sts _MiddlePosition_value,R24
 0864                   .dbline 617
 0864           ;   LeftLimit_value=((int)(PWM_Duty_LeftLimit_us*FLK)>>3)-1; //900us 左极限位置计数器值，60度  1度10us
 0864 83E8              ldi R24,899
 0866 93E0              ldi R25,3
 0868 90930A00          sts _LeftLimit_value+1,R25
 086C 80930900          sts _LeftLimit_value,R24
 0870                   .dbline 618
 0870           ;   RightLimit_value=((int)(PWM_Duty_RightLimit_us*FLK)>>3)-1; //2100us 右极限位置计数器值，60度
 0870 83E3              ldi R24,2099
 0872 98E0              ldi R25,8
 0874 90930800          sts _RightLimit_value+1,R25
 0878 80930700          sts _RightLimit_value,R24
 087C                   .dbline -2
 087C           L89:
 087C                   .dbline 0 ; func end
 087C 0895              ret
 087E                   .dbend
 087E                   .dbfunc e char2int _char2int fI
 087E           ;          a_int -> R20,R21
 087E           ;         a_flag -> R18
 087E           ;         a_char -> R16
                        .even
 087E           _char2int::
 087E 4A93              st -y,R20
 0880 5A93              st -y,R21
 0882                   .dbline -1
 0882                   .dbline 624
 0882           ; }
 0882           ;       
 0882           ; //********************将unsigned char型数转化为int型数**************************
 0882           ; //flag=1时转为负数，左转；flag=0时转为正数，右转
 0882           ; int char2int(unsigned char a_char,unsigned char a_flag)
 0882           ; {
 0882                   .dbline 626
 0882           ;   int a_int;
 0882           ;   if(a_flag==0)
 0882 2223              tst R18
 0884 11F4              brne L91
 0886           X36:
 0886                   .dbline 627
 0886           ;   {
 0886                   .dbline 628
 0886           ;      a_int=a_char;
 0886 402F              mov R20,R16
 0888 5527              clr R21
 088A                   .dbline 629
 088A           ;   }
 088A           L91:
 088A                   .dbline 630
 088A           ;   if(a_flag==1)
 088A 2130              cpi R18,1
 088C 31F4              brne L93
 088E           X37:
 088E                   .dbline 631
 088E           ;   {
 088E                   .dbline 632
 088E           ;      a_int=a_char;
 088E 402F              mov R20,R16
 0890 5527              clr R21
 0892                   .dbline 633
 0892           ;        a_int=-a_int;
 0892 4095              com R20
 0894 5095              com R21
 0896 4F5F              subi R20,0xFF
 0898 5F4F              sbci R21,0xFF
 089A                   .dbline 634
 089A           ;   }
 089A           L93:
 089A                   .dbline 635
 089A           ; return a_int;
 089A 8A01              movw R16,R20
 089C                   .dbline -2
 089C           L90:
 089C                   .dbline 0 ; func end
 089C 5991              ld R21,y+
 089E 4991              ld R20,y+
 08A0 0895              ret
 08A2                   .dbsym r a_int 20 I
 08A2                   .dbsym r a_flag 18 c
 08A2                   .dbsym r a_char 16 c
 08A2                   .dbend
 08A2                   .dbfunc e one2two _one2two fV
 08A2           ;         data_b -> R10,R11
 08A2           ;         data_a -> R18,R19
 08A2           ;      data_init -> R16,R17
                        .even
 08A2           _one2two::
 08A2 AA92              st -y,R10
 08A4 BA92              st -y,R11
 08A6 AA80              ldd R10,y+2
 08A8 BB80              ldd R11,y+3
 08AA                   .dbline -1
 08AA                   .dbline 645
 08AA           ; }
 08AA           ; 
 08AA           ; 
 08AA           ; 
 08AA           ; //*********************一个16位数组，拆为2个8位数组****************************
 08AA           ; //将长度为16位的数组data_init[16]拆成2个长度为8的数组
 08AA           ; //分别为data_a[8],data_b[8]
 08AA           ; //unsigned char型
 08AA           ; void one2two(unsigned char *data_init,unsigned char *data_a,unsigned char *data_b)
 08AA           ; {
 08AA                   .dbline 646
 08AA           ;   for(s=0;s<=7;s++)
 08AA 2224              clr R2
 08AC 20920900          sts _s,R2
 08B0 11C0              xjmp L99
 08B2           L96:
 08B2                   .dbline 647
 08B2           ;    {
 08B2                   .dbline 648
 08B2           ;    data_a[s]=data_init[s];
 08B2 30900900          lds R3,_s
 08B6 E32D              mov R30,R3
 08B8 FF27              clr R31
 08BA E00F              add R30,R16
 08BC F11F              adc R31,R17
 08BE 2080              ldd R2,z+0
 08C0 E32D              mov R30,R3
 08C2 FF27              clr R31
 08C4 E20F              add R30,R18
 08C6 F31F              adc R31,R19
 08C8 2082              std z+0,R2
 08CA                   .dbline 649
 08CA           ;    }
 08CA           L97:
 08CA                   .dbline 646
 08CA 80910900          lds R24,_s
 08CE 8F5F              subi R24,255    ; addi 1
 08D0 80930900          sts _s,R24
 08D4           L99:
 08D4                   .dbline 646
 08D4 87E0              ldi R24,7
 08D6 20900900          lds R2,_s
 08DA 8215              cp R24,R2
 08DC 50F7              brsh L96
 08DE           X38:
 08DE                   .dbline 650
 08DE           ;   for(s=8;s<=15;s++)
 08DE 88E0              ldi R24,8
 08E0 80930900          sts _s,R24
 08E4 12C0              xjmp L103
 08E6           L100:
 08E6                   .dbline 651
 08E6           ;    {
 08E6                   .dbline 652
 08E6           ;    data_b[s-8]=data_init[s];
 08E6 30900900          lds R3,_s
 08EA E32D              mov R30,R3
 08EC FF27              clr R31
 08EE E00F              add R30,R16
 08F0 F11F              adc R31,R17
 08F2 2080              ldd R2,z+0
 08F4 E32D              mov R30,R3
 08F6 FF27              clr R31
 08F8 3897              sbiw R30,8
 08FA EA0D              add R30,R10
 08FC FB1D              adc R31,R11
 08FE 2082              std z+0,R2
 0900                   .dbline 653
 0900           ;    }
 0900           L101:
 0900                   .dbline 650
 0900 80910900          lds R24,_s
 0904 8F5F              subi R24,255    ; addi 1
 0906 80930900          sts _s,R24
 090A           L103:
 090A                   .dbline 650
 090A 8FE0              ldi R24,15
 090C 20900900          lds R2,_s
 0910 8215              cp R24,R2
 0912 48F7              brsh L100
 0914           X39:
 0914                   .dbline -2
 0914           L95:
 0914                   .dbline 0 ; func end
 0914 B990              ld R11,y+
 0916 A990              ld R10,y+
 0918 0895              ret
 091A                   .dbsym r data_b 10 pc
 091A                   .dbsym r data_a 18 pc
 091A                   .dbsym r data_init 16 pc
 091A                   .dbend
 091A                   .dbfunc e two2one _two2one fV
 091A           ;        data_bb -> R10,R11
 091A           ;        data_aa -> R18,R19
 091A           ;     data_inits -> R16,R17
                        .even
 091A           _two2one::
 091A AA92              st -y,R10
 091C BA92              st -y,R11
 091E AA80              ldd R10,y+2
 0920 BB80              ldd R11,y+3
 0922                   .dbline -1
 0922                   .dbline 661
 0922           ; }
 0922           ; 
 0922           ; //*******************将2个8位数组依顺序组成一个16位数组************************
 0922           ; //将2个长度为8的数组data_aa[8],data_bb[8]
 0922           ; //顺次组成一个长度为16位的数组data_inits[16]
 0922           ; //unsigned char型
 0922           ; void two2one(unsigned char *data_inits,unsigned char *data_aa,unsigned char *data_bb)
 0922           ; {
 0922                   .dbline 662
 0922           ;   for(s=0;s<=7;s++)
 0922 2224              clr R2
 0924 20920900          sts _s,R2
 0928 11C0              xjmp L108
 092A           L105:
 092A                   .dbline 663
 092A           ;    {
 092A                   .dbline 664
 092A           ;    data_inits[s]=data_aa[s];//*把data_aa数值顺次赋值给data_inits
 092A 30900900          lds R3,_s
 092E E32D              mov R30,R3
 0930 FF27              clr R31
 0932 E20F              add R30,R18
 0934 F31F              adc R31,R19
 0936 2080              ldd R2,z+0
 0938 E32D              mov R30,R3
 093A FF27              clr R31
 093C E00F              add R30,R16
 093E F11F              adc R31,R17
 0940 2082              std z+0,R2
 0942                   .dbline 665
 0942           ;    }
 0942           L106:
 0942                   .dbline 662
 0942 80910900          lds R24,_s
 0946 8F5F              subi R24,255    ; addi 1
 0948 80930900          sts _s,R24
 094C           L108:
 094C                   .dbline 662
 094C 87E0              ldi R24,7
 094E 20900900          lds R2,_s
 0952 8215              cp R24,R2
 0954 50F7              brsh L105
 0956           X40:
 0956                   .dbline 666
 0956           ;   for(s=0;s<=7;s++)
 0956 2224              clr R2
 0958 20920900          sts _s,R2
 095C 11C0              xjmp L112
 095E           L109:
 095E                   .dbline 667
 095E           ;    {
 095E                   .dbline 668
 095E           ;    data_inits[s+8]=data_bb[s];//*把data_bb数值顺次赋值给data_bb的高八位
 095E 30900900          lds R3,_s
 0962 E32D              mov R30,R3
 0964 FF27              clr R31
 0966 EA0D              add R30,R10
 0968 FB1D              adc R31,R11
 096A 2080              ldd R2,z+0
 096C E32D              mov R30,R3
 096E FF27              clr R31
 0970 E00F              add R30,R16
 0972 F11F              adc R31,R17
 0974 2086              std z+8,R2
 0976                   .dbline 669
 0976           ;    }
 0976           L110:
 0976                   .dbline 666
 0976 80910900          lds R24,_s
 097A 8F5F              subi R24,255    ; addi 1
 097C 80930900          sts _s,R24
 0980           L112:
 0980                   .dbline 666
 0980 87E0              ldi R24,7
 0982 20900900          lds R2,_s
 0986 8215              cp R24,R2
 0988 50F7              brsh L109
 098A           X41:
 098A                   .dbline -2
 098A           L104:
 098A                   .dbline 0 ; func end
 098A B990              ld R11,y+
 098C A990              ld R10,y+
 098E 0895              ret
 0990                   .dbsym r data_bb 10 pc
 0990                   .dbsym r data_aa 18 pc
 0990                   .dbsym r data_inits 16 pc
 0990                   .dbend
 0990                   .dbfunc e one2three _one2three fV
 0990           ;         data_c -> R10,R11
 0990           ;         data_b -> R12,R13
 0990           ;         data_a -> R18,R19
 0990           ;      data_init -> R16,R17
                        .even
 0990           _one2three::
 0990 0E940000          xcall push_xgset003C
 0994 CC80              ldd R12,y+4
 0996 DD80              ldd R13,y+5
 0998 AE80              ldd R10,y+6
 099A BF80              ldd R11,y+7
 099C                   .dbline -1
 099C                   .dbline 677
 099C           ; }
 099C           ; 
 099C           ; //*********************一个24位数组，拆为3个8位数组****************************
 099C           ; //将长度为32位的数组data_init[24]拆成3个长度为8的数组
 099C           ; //分别为data_a[8],data_b[8],data_c[8]
 099C           ; //unsigned char型
 099C           ; void one2three(unsigned char *data_init,unsigned char *data_a,unsigned char *data_b,unsigned char *data_c)
 099C           ; {
 099C                   .dbline 678
 099C           ;   for(s=0;s<=7;s++)
 099C 2224              clr R2
 099E 20920900          sts _s,R2
 09A2 11C0              xjmp L117
 09A4           L114:
 09A4                   .dbline 679
 09A4           ;    {
 09A4                   .dbline 680
 09A4           ;    data_a[s]=data_init[s];//*把data_init[]的前八位形成一个新的数组data_a[]
 09A4 30900900          lds R3,_s
 09A8 E32D              mov R30,R3
 09AA FF27              clr R31
 09AC E00F              add R30,R16
 09AE F11F              adc R31,R17
 09B0 2080              ldd R2,z+0
 09B2 E32D              mov R30,R3
 09B4 FF27              clr R31
 09B6 E20F              add R30,R18
 09B8 F31F              adc R31,R19
 09BA 2082              std z+0,R2
 09BC                   .dbline 681
 09BC           ;    }
 09BC           L115:
 09BC                   .dbline 678
 09BC 80910900          lds R24,_s
 09C0 8F5F              subi R24,255    ; addi 1
 09C2 80930900          sts _s,R24
 09C6           L117:
 09C6                   .dbline 678
 09C6 87E0              ldi R24,7
 09C8 20900900          lds R2,_s
 09CC 8215              cp R24,R2
 09CE 50F7              brsh L114
 09D0           X42:
 09D0                   .dbline 682
 09D0           ;   for(s=8;s<=15;s++)
 09D0 88E0              ldi R24,8
 09D2 80930900          sts _s,R24
 09D6 12C0              xjmp L121
 09D8           L118:
 09D8                   .dbline 683
 09D8           ;    {
 09D8                   .dbline 684
 09D8           ;    data_b[s-8]=data_init[s];//*把data_init[]第九位到第十六位形成一个新的数组data_b[]
 09D8 30900900          lds R3,_s
 09DC E32D              mov R30,R3
 09DE FF27              clr R31
 09E0 E00F              add R30,R16
 09E2 F11F              adc R31,R17
 09E4 2080              ldd R2,z+0
 09E6 E32D              mov R30,R3
 09E8 FF27              clr R31
 09EA 3897              sbiw R30,8
 09EC EC0D              add R30,R12
 09EE FD1D              adc R31,R13
 09F0 2082              std z+0,R2
 09F2                   .dbline 685
 09F2           ;    }
 09F2           L119:
 09F2                   .dbline 682
 09F2 80910900          lds R24,_s
 09F6 8F5F              subi R24,255    ; addi 1
 09F8 80930900          sts _s,R24
 09FC           L121:
 09FC                   .dbline 682
 09FC 8FE0              ldi R24,15
 09FE 20900900          lds R2,_s
 0A02 8215              cp R24,R2
 0A04 48F7              brsh L118
 0A06           X43:
 0A06                   .dbline 686
 0A06           ;   for(s=16;s<=23;s++)
 0A06 80E1              ldi R24,16
 0A08 80930900          sts _s,R24
 0A0C 12C0              xjmp L125
 0A0E           L122:
 0A0E                   .dbline 687
 0A0E           ;    {
 0A0E                   .dbline 688
 0A0E           ;    data_c[s-16]=data_init[s];//*把data_init[]第十七位到到第二十四位形成一个新的数组data_c[]
 0A0E C0900900          lds R12,_s
 0A12 EC2D              mov R30,R12
 0A14 FF27              clr R31
 0A16 E00F              add R30,R16
 0A18 F11F              adc R31,R17
 0A1A 2080              ldd R2,z+0
 0A1C EC2D              mov R30,R12
 0A1E FF27              clr R31
 0A20 7097              sbiw R30,16
 0A22 EA0D              add R30,R10
 0A24 FB1D              adc R31,R11
 0A26 2082              std z+0,R2
 0A28                   .dbline 689
 0A28           ;    }
 0A28           L123:
 0A28                   .dbline 686
 0A28 80910900          lds R24,_s
 0A2C 8F5F              subi R24,255    ; addi 1
 0A2E 80930900          sts _s,R24
 0A32           L125:
 0A32                   .dbline 686
 0A32 87E1              ldi R24,23
 0A34 20900900          lds R2,_s
 0A38 8215              cp R24,R2
 0A3A 48F7              brsh L122
 0A3C           X44:
 0A3C                   .dbline -2
 0A3C           L113:
 0A3C                   .dbline 0 ; func end
 0A3C 0C940000          xjmp pop_xgset003C
 0A40                   .dbsym r data_c 10 pc
 0A40                   .dbsym r data_b 12 pc
 0A40                   .dbsym r data_a 18 pc
 0A40                   .dbsym r data_init 16 pc
 0A40                   .dbend
 0A40                   .dbfunc e three2one _three2one fV
 0A40           ;        data_cc -> R10,R11
 0A40           ;        data_bb -> R12,R13
 0A40           ;        data_aa -> R18,R19
 0A40           ;     data_inits -> R16,R17
                        .even
 0A40           _three2one::
 0A40 0E940000          xcall push_xgset003C
 0A44 CC80              ldd R12,y+4
 0A46 DD80              ldd R13,y+5
 0A48 AE80              ldd R10,y+6
 0A4A BF80              ldd R11,y+7
 0A4C                   .dbline -1
 0A4C                   .dbline 697
 0A4C           ; }
 0A4C           ; 
 0A4C           ; //*******************将3个8位数组依顺序组成一个24位数组************************
 0A4C           ; //将3个长度为24的数组data_aa[8],data_bb[8],data_cc[8]
 0A4C           ; //顺次组成一个长度为32位的数组data_inits[32]
 0A4C           ; //unsigned char型
 0A4C           ; void three2one(unsigned char *data_inits,unsigned char *data_aa,unsigned char *data_bb,unsigned char *data_cc)
 0A4C           ; {
 0A4C                   .dbline 698
 0A4C           ;   for(s=0;s<=7;s++)
 0A4C 2224              clr R2
 0A4E 20920900          sts _s,R2
 0A52 11C0              xjmp L130
 0A54           L127:
 0A54                   .dbline 699
 0A54           ;    {
 0A54                   .dbline 700
 0A54           ;    data_inits[s]=data_aa[s];
 0A54 30900900          lds R3,_s
 0A58 E32D              mov R30,R3
 0A5A FF27              clr R31
 0A5C E20F              add R30,R18
 0A5E F31F              adc R31,R19
 0A60 2080              ldd R2,z+0
 0A62 E32D              mov R30,R3
 0A64 FF27              clr R31
 0A66 E00F              add R30,R16
 0A68 F11F              adc R31,R17
 0A6A 2082              std z+0,R2
 0A6C                   .dbline 701
 0A6C           ;    }
 0A6C           L128:
 0A6C                   .dbline 698
 0A6C 80910900          lds R24,_s
 0A70 8F5F              subi R24,255    ; addi 1
 0A72 80930900          sts _s,R24
 0A76           L130:
 0A76                   .dbline 698
 0A76 87E0              ldi R24,7
 0A78 20900900          lds R2,_s
 0A7C 8215              cp R24,R2
 0A7E 50F7              brsh L127
 0A80           X45:
 0A80                   .dbline 702
 0A80           ;   for(s=0;s<=7;s++)
 0A80 2224              clr R2
 0A82 20920900          sts _s,R2
 0A86 11C0              xjmp L134
 0A88           L131:
 0A88                   .dbline 703
 0A88           ;    {
 0A88                   .dbline 704
 0A88           ;    data_inits[s+8]=data_bb[s];
 0A88 30900900          lds R3,_s
 0A8C E32D              mov R30,R3
 0A8E FF27              clr R31
 0A90 EC0D              add R30,R12
 0A92 FD1D              adc R31,R13
 0A94 2080              ldd R2,z+0
 0A96 E32D              mov R30,R3
 0A98 FF27              clr R31
 0A9A E00F              add R30,R16
 0A9C F11F              adc R31,R17
 0A9E 2086              std z+8,R2
 0AA0                   .dbline 705
 0AA0           ;    }
 0AA0           L132:
 0AA0                   .dbline 702
 0AA0 80910900          lds R24,_s
 0AA4 8F5F              subi R24,255    ; addi 1
 0AA6 80930900          sts _s,R24
 0AAA           L134:
 0AAA                   .dbline 702
 0AAA 87E0              ldi R24,7
 0AAC 20900900          lds R2,_s
 0AB0 8215              cp R24,R2
 0AB2 50F7              brsh L131
 0AB4           X46:
 0AB4                   .dbline 706
 0AB4           ;   for(s=0;s<=7;s++)
 0AB4 2224              clr R2
 0AB6 20920900          sts _s,R2
 0ABA 11C0              xjmp L138
 0ABC           L135:
 0ABC                   .dbline 707
 0ABC           ;    {
 0ABC                   .dbline 708
 0ABC           ;    data_inits[s+16]=data_cc[s];
 0ABC C0900900          lds R12,_s
 0AC0 EC2D              mov R30,R12
 0AC2 FF27              clr R31
 0AC4 EA0D              add R30,R10
 0AC6 FB1D              adc R31,R11
 0AC8 2080              ldd R2,z+0
 0ACA EC2D              mov R30,R12
 0ACC FF27              clr R31
 0ACE E00F              add R30,R16
 0AD0 F11F              adc R31,R17
 0AD2 208A              std z+16,R2
 0AD4                   .dbline 709
 0AD4           ;    }
 0AD4           L136:
 0AD4                   .dbline 706
 0AD4 80910900          lds R24,_s
 0AD8 8F5F              subi R24,255    ; addi 1
 0ADA 80930900          sts _s,R24
 0ADE           L138:
 0ADE                   .dbline 706
 0ADE 87E0              ldi R24,7
 0AE0 20900900          lds R2,_s
 0AE4 8215              cp R24,R2
 0AE6 50F7              brsh L135
 0AE8           X47:
 0AE8                   .dbline -2
 0AE8           L126:
 0AE8                   .dbline 0 ; func end
 0AE8 0C940000          xjmp pop_xgset003C
 0AEC                   .dbsym r data_cc 10 pc
 0AEC                   .dbsym r data_bb 12 pc
 0AEC                   .dbsym r data_aa 18 pc
 0AEC                   .dbsym r data_inits 16 pc
 0AEC                   .dbend
 0AEC                   .dbfunc e one2six _one2six fV
 0AEC           ;         data_f -> R10,R11
 0AEC           ;         data_e -> R12,R13
 0AEC           ;         data_d -> R14,R15
 0AEC           ;         data_c -> R20,R21
 0AEC           ;         data_b -> R22,R23
 0AEC           ;         data_a -> R18,R19
 0AEC           ;      data_init -> R16,R17
                        .even
 0AEC           _one2six::
 0AEC 0E940000          xcall push_xgsetF0FC
 0AF0 6A85              ldd R22,y+10
 0AF2 7B85              ldd R23,y+11
 0AF4 4C85              ldd R20,y+12
 0AF6 5D85              ldd R21,y+13
 0AF8 EE84              ldd R14,y+14
 0AFA FF84              ldd R15,y+15
 0AFC C888              ldd R12,y+16
 0AFE D988              ldd R13,y+17
 0B00 AA88              ldd R10,y+18
 0B02 BB88              ldd R11,y+19
 0B04                   .dbline -1
 0B04                   .dbline 718
 0B04           ; }
 0B04           ; 
 0B04           ; 
 0B04           ; //*********************一个48位数组，拆为6个8位数组****************************
 0B04           ; //将长度为48位的数组data_init[48]拆成6个长度为8的数组
 0B04           ; //分别为data_a[8],data_b[8],data_c[8],data_d[8],data_e[8],data_f[8]
 0B04           ; //unsigned char型
 0B04           ; void one2six(unsigned char *data_init,unsigned char *data_a,unsigned char *data_b,unsigned char *data_c,unsigned char *data_d,unsigned char *data_e,unsigned char *data_f)
 0B04           ; {
 0B04                   .dbline 719
 0B04           ;   for(s=0;s<=7;s++)
 0B04 2224              clr R2
 0B06 20920900          sts _s,R2
 0B0A 11C0              xjmp L143
 0B0C           L140:
 0B0C                   .dbline 720
 0B0C           ;    {
 0B0C                   .dbline 721
 0B0C           ;    data_a[s]=data_init[s];
 0B0C 30900900          lds R3,_s
 0B10 E32D              mov R30,R3
 0B12 FF27              clr R31
 0B14 E00F              add R30,R16
 0B16 F11F              adc R31,R17
 0B18 2080              ldd R2,z+0
 0B1A E32D              mov R30,R3
 0B1C FF27              clr R31
 0B1E E20F              add R30,R18
 0B20 F31F              adc R31,R19
 0B22 2082              std z+0,R2
 0B24                   .dbline 722
 0B24           ;    }
 0B24           L141:
 0B24                   .dbline 719
 0B24 80910900          lds R24,_s
 0B28 8F5F              subi R24,255    ; addi 1
 0B2A 80930900          sts _s,R24
 0B2E           L143:
 0B2E                   .dbline 719
 0B2E 87E0              ldi R24,7
 0B30 20900900          lds R2,_s
 0B34 8215              cp R24,R2
 0B36 50F7              brsh L140
 0B38           X48:
 0B38                   .dbline 723
 0B38           ;   for(s=8;s<=15;s++)
 0B38 88E0              ldi R24,8
 0B3A 80930900          sts _s,R24
 0B3E 12C0              xjmp L147
 0B40           L144:
 0B40                   .dbline 724
 0B40           ;    {
 0B40                   .dbline 725
 0B40           ;    data_b[s-8]=data_init[s];
 0B40 30900900          lds R3,_s
 0B44 E32D              mov R30,R3
 0B46 FF27              clr R31
 0B48 E00F              add R30,R16
 0B4A F11F              adc R31,R17
 0B4C 2080              ldd R2,z+0
 0B4E E32D              mov R30,R3
 0B50 FF27              clr R31
 0B52 3897              sbiw R30,8
 0B54 E60F              add R30,R22
 0B56 F71F              adc R31,R23
 0B58 2082              std z+0,R2
 0B5A                   .dbline 726
 0B5A           ;    }
 0B5A           L145:
 0B5A                   .dbline 723
 0B5A 80910900          lds R24,_s
 0B5E 8F5F              subi R24,255    ; addi 1
 0B60 80930900          sts _s,R24
 0B64           L147:
 0B64                   .dbline 723
 0B64 8FE0              ldi R24,15
 0B66 20900900          lds R2,_s
 0B6A 8215              cp R24,R2
 0B6C 48F7              brsh L144
 0B6E           X49:
 0B6E                   .dbline 727
 0B6E           ;   for(s=16;s<=23;s++)
 0B6E 80E1              ldi R24,16
 0B70 80930900          sts _s,R24
 0B74 12C0              xjmp L151
 0B76           L148:
 0B76                   .dbline 728
 0B76           ;    {
 0B76                   .dbline 729
 0B76           ;    data_c[s-16]=data_init[s];
 0B76 60910900          lds R22,_s
 0B7A E62F              mov R30,R22
 0B7C FF27              clr R31
 0B7E E00F              add R30,R16
 0B80 F11F              adc R31,R17
 0B82 2080              ldd R2,z+0
 0B84 E62F              mov R30,R22
 0B86 FF27              clr R31
 0B88 7097              sbiw R30,16
 0B8A E40F              add R30,R20
 0B8C F51F              adc R31,R21
 0B8E 2082              std z+0,R2
 0B90                   .dbline 730
 0B90           ;    }
 0B90           L149:
 0B90                   .dbline 727
 0B90 80910900          lds R24,_s
 0B94 8F5F              subi R24,255    ; addi 1
 0B96 80930900          sts _s,R24
 0B9A           L151:
 0B9A                   .dbline 727
 0B9A 87E1              ldi R24,23
 0B9C 20900900          lds R2,_s
 0BA0 8215              cp R24,R2
 0BA2 48F7              brsh L148
 0BA4           X50:
 0BA4                   .dbline 731
 0BA4           ;   for(s=24;s<=31;s++)
 0BA4 88E1              ldi R24,24
 0BA6 80930900          sts _s,R24
 0BAA 12C0              xjmp L155
 0BAC           L152:
 0BAC                   .dbline 732
 0BAC           ;    {
 0BAC                   .dbline 733
 0BAC           ;    data_d[s-24]=data_init[s];
 0BAC 40910900          lds R20,_s
 0BB0 E42F              mov R30,R20
 0BB2 FF27              clr R31
 0BB4 E00F              add R30,R16
 0BB6 F11F              adc R31,R17
 0BB8 2080              ldd R2,z+0
 0BBA E42F              mov R30,R20
 0BBC FF27              clr R31
 0BBE 7897              sbiw R30,24
 0BC0 EE0D              add R30,R14
 0BC2 FF1D              adc R31,R15
 0BC4 2082              std z+0,R2
 0BC6                   .dbline 734
 0BC6           ;    }
 0BC6           L153:
 0BC6                   .dbline 731
 0BC6 80910900          lds R24,_s
 0BCA 8F5F              subi R24,255    ; addi 1
 0BCC 80930900          sts _s,R24
 0BD0           L155:
 0BD0                   .dbline 731
 0BD0 8FE1              ldi R24,31
 0BD2 20900900          lds R2,_s
 0BD6 8215              cp R24,R2
 0BD8 48F7              brsh L152
 0BDA           X51:
 0BDA                   .dbline 735
 0BDA           ;   for(s=32;s<=39;s++)
 0BDA 80E2              ldi R24,32
 0BDC 80930900          sts _s,R24
 0BE0 12C0              xjmp L159
 0BE2           L156:
 0BE2                   .dbline 736
 0BE2           ;    {
 0BE2                   .dbline 737
 0BE2           ;    data_e[s-32]=data_init[s];
 0BE2 E0900900          lds R14,_s
 0BE6 EE2D              mov R30,R14
 0BE8 FF27              clr R31
 0BEA E00F              add R30,R16
 0BEC F11F              adc R31,R17
 0BEE 2080              ldd R2,z+0
 0BF0 EE2D              mov R30,R14
 0BF2 FF27              clr R31
 0BF4 B097              sbiw R30,32
 0BF6 EC0D              add R30,R12
 0BF8 FD1D              adc R31,R13
 0BFA 2082              std z+0,R2
 0BFC                   .dbline 738
 0BFC           ;    }
 0BFC           L157:
 0BFC                   .dbline 735
 0BFC 80910900          lds R24,_s
 0C00 8F5F              subi R24,255    ; addi 1
 0C02 80930900          sts _s,R24
 0C06           L159:
 0C06                   .dbline 735
 0C06 87E2              ldi R24,39
 0C08 20900900          lds R2,_s
 0C0C 8215              cp R24,R2
 0C0E 48F7              brsh L156
 0C10           X52:
 0C10                   .dbline 739
 0C10           ;   for(s=40;s<=47;s++)
 0C10 88E2              ldi R24,40
 0C12 80930900          sts _s,R24
 0C16 12C0              xjmp L163
 0C18           L160:
 0C18                   .dbline 740
 0C18           ;    {
 0C18                   .dbline 741
 0C18           ;    data_f[s-40]=data_init[s];
 0C18 C0900900          lds R12,_s
 0C1C EC2D              mov R30,R12
 0C1E FF27              clr R31
 0C20 E00F              add R30,R16
 0C22 F11F              adc R31,R17
 0C24 2080              ldd R2,z+0
 0C26 EC2D              mov R30,R12
 0C28 FF27              clr R31
 0C2A B897              sbiw R30,40
 0C2C EA0D              add R30,R10
 0C2E FB1D              adc R31,R11
 0C30 2082              std z+0,R2
 0C32                   .dbline 742
 0C32           ;    }
 0C32           L161:
 0C32                   .dbline 739
 0C32 80910900          lds R24,_s
 0C36 8F5F              subi R24,255    ; addi 1
 0C38 80930900          sts _s,R24
 0C3C           L163:
 0C3C                   .dbline 739
 0C3C 8FE2              ldi R24,47
 0C3E 20900900          lds R2,_s
 0C42 8215              cp R24,R2
 0C44 48F7              brsh L160
 0C46           X53:
 0C46                   .dbline -2
 0C46           L139:
 0C46                   .dbline 0 ; func end
 0C46 0C940000          xjmp pop_xgsetF0FC
 0C4A                   .dbsym r data_f 10 pc
 0C4A                   .dbsym r data_e 12 pc
 0C4A                   .dbsym r data_d 14 pc
 0C4A                   .dbsym r data_c 20 pc
 0C4A                   .dbsym r data_b 22 pc
 0C4A                   .dbsym r data_a 18 pc
 0C4A                   .dbsym r data_init 16 pc
 0C4A                   .dbend
 0C4A                   .dbfunc e six2one _six2one fV
 0C4A           ;        data_ff -> R10,R11
 0C4A           ;        data_ee -> R12,R13
 0C4A           ;        data_dd -> R14,R15
 0C4A           ;        data_cc -> R20,R21
 0C4A           ;        data_bb -> R22,R23
 0C4A           ;        data_aa -> R18,R19
 0C4A           ;     data_inits -> R16,R17
                        .even
 0C4A           _six2one::
 0C4A 0E940000          xcall push_xgsetF0FC
 0C4E 6A85              ldd R22,y+10
 0C50 7B85              ldd R23,y+11
 0C52 4C85              ldd R20,y+12
 0C54 5D85              ldd R21,y+13
 0C56 EE84              ldd R14,y+14
 0C58 FF84              ldd R15,y+15
 0C5A C888              ldd R12,y+16
 0C5C D988              ldd R13,y+17
 0C5E AA88              ldd R10,y+18
 0C60 BB88              ldd R11,y+19
 0C62                   .dbline -1
 0C62                   .dbline 750
 0C62           ; }
 0C62           ; 
 0C62           ; //*******************将6个8位数组依顺序组成一个48位数组************************
 0C62           ; //将6个长度为8的数组data_aa[8],data_bb[8],data_cc[8],data_dd[8]
 0C62           ; //顺次组成一个长度为48位的数组data_inits[48]
 0C62           ; //unsigned char型
 0C62           ; void six2one(unsigned char *data_inits,unsigned char *data_aa,unsigned char *data_bb,unsigned char *data_cc,unsigned char *data_dd,unsigned char *data_ee,unsigned char *data_ff)
 0C62           ; {
 0C62                   .dbline 751
 0C62           ;   for(s=0;s<=7;s++)
 0C62 2224              clr R2
 0C64 20920900          sts _s,R2
 0C68 11C0              xjmp L168
 0C6A           L165:
 0C6A                   .dbline 752
 0C6A           ;    {
 0C6A                   .dbline 753
 0C6A           ;    data_inits[s]=data_aa[s];
 0C6A 30900900          lds R3,_s
 0C6E E32D              mov R30,R3
 0C70 FF27              clr R31
 0C72 E20F              add R30,R18
 0C74 F31F              adc R31,R19
 0C76 2080              ldd R2,z+0
 0C78 E32D              mov R30,R3
 0C7A FF27              clr R31
 0C7C E00F              add R30,R16
 0C7E F11F              adc R31,R17
 0C80 2082              std z+0,R2
 0C82                   .dbline 754
 0C82           ;    }
 0C82           L166:
 0C82                   .dbline 751
 0C82 80910900          lds R24,_s
 0C86 8F5F              subi R24,255    ; addi 1
 0C88 80930900          sts _s,R24
 0C8C           L168:
 0C8C                   .dbline 751
 0C8C 87E0              ldi R24,7
 0C8E 20900900          lds R2,_s
 0C92 8215              cp R24,R2
 0C94 50F7              brsh L165
 0C96           X54:
 0C96                   .dbline 755
 0C96           ;   for(s=0;s<=7;s++)
 0C96 2224              clr R2
 0C98 20920900          sts _s,R2
 0C9C 11C0              xjmp L172
 0C9E           L169:
 0C9E                   .dbline 756
 0C9E           ;    {
 0C9E                   .dbline 757
 0C9E           ;    data_inits[s+8]=data_bb[s];
 0C9E 30900900          lds R3,_s
 0CA2 E32D              mov R30,R3
 0CA4 FF27              clr R31
 0CA6 E60F              add R30,R22
 0CA8 F71F              adc R31,R23
 0CAA 2080              ldd R2,z+0
 0CAC E32D              mov R30,R3
 0CAE FF27              clr R31
 0CB0 E00F              add R30,R16
 0CB2 F11F              adc R31,R17
 0CB4 2086              std z+8,R2
 0CB6                   .dbline 758
 0CB6           ;    }
 0CB6           L170:
 0CB6                   .dbline 755
 0CB6 80910900          lds R24,_s
 0CBA 8F5F              subi R24,255    ; addi 1
 0CBC 80930900          sts _s,R24
 0CC0           L172:
 0CC0                   .dbline 755
 0CC0 87E0              ldi R24,7
 0CC2 20900900          lds R2,_s
 0CC6 8215              cp R24,R2
 0CC8 50F7              brsh L169
 0CCA           X55:
 0CCA                   .dbline 759
 0CCA           ;   for(s=0;s<=7;s++)
 0CCA 2224              clr R2
 0CCC 20920900          sts _s,R2
 0CD0 11C0              xjmp L176
 0CD2           L173:
 0CD2                   .dbline 760
 0CD2           ;    {
 0CD2                   .dbline 761
 0CD2           ;    data_inits[s+16]=data_cc[s];
 0CD2 60910900          lds R22,_s
 0CD6 E62F              mov R30,R22
 0CD8 FF27              clr R31
 0CDA E40F              add R30,R20
 0CDC F51F              adc R31,R21
 0CDE 2080              ldd R2,z+0
 0CE0 E62F              mov R30,R22
 0CE2 FF27              clr R31
 0CE4 E00F              add R30,R16
 0CE6 F11F              adc R31,R17
 0CE8 208A              std z+16,R2
 0CEA                   .dbline 762
 0CEA           ;    }
 0CEA           L174:
 0CEA                   .dbline 759
 0CEA 80910900          lds R24,_s
 0CEE 8F5F              subi R24,255    ; addi 1
 0CF0 80930900          sts _s,R24
 0CF4           L176:
 0CF4                   .dbline 759
 0CF4 87E0              ldi R24,7
 0CF6 20900900          lds R2,_s
 0CFA 8215              cp R24,R2
 0CFC 50F7              brsh L173
 0CFE           X56:
 0CFE                   .dbline 763
 0CFE           ;   for(s=0;s<=7;s++)
 0CFE 2224              clr R2
 0D00 20920900          sts _s,R2
 0D04 11C0              xjmp L180
 0D06           L177:
 0D06                   .dbline 764
 0D06           ;    {
 0D06                   .dbline 765
 0D06           ;    data_inits[s+24]=data_dd[s];
 0D06 40910900          lds R20,_s
 0D0A E42F              mov R30,R20
 0D0C FF27              clr R31
 0D0E EE0D              add R30,R14
 0D10 FF1D              adc R31,R15
 0D12 2080              ldd R2,z+0
 0D14 E42F              mov R30,R20
 0D16 FF27              clr R31
 0D18 E00F              add R30,R16
 0D1A F11F              adc R31,R17
 0D1C 208E              std z+24,R2
 0D1E                   .dbline 766
 0D1E           ;    }
 0D1E           L178:
 0D1E                   .dbline 763
 0D1E 80910900          lds R24,_s
 0D22 8F5F              subi R24,255    ; addi 1
 0D24 80930900          sts _s,R24
 0D28           L180:
 0D28                   .dbline 763
 0D28 87E0              ldi R24,7
 0D2A 20900900          lds R2,_s
 0D2E 8215              cp R24,R2
 0D30 50F7              brsh L177
 0D32           X57:
 0D32                   .dbline 767
 0D32           ;   for(s=0;s<=7;s++)
 0D32 2224              clr R2
 0D34 20920900          sts _s,R2
 0D38 11C0              xjmp L184
 0D3A           L181:
 0D3A                   .dbline 768
 0D3A           ;    {
 0D3A                   .dbline 769
 0D3A           ;    data_inits[s+32]=data_ee[s];
 0D3A E0900900          lds R14,_s
 0D3E EE2D              mov R30,R14
 0D40 FF27              clr R31
 0D42 EC0D              add R30,R12
 0D44 FD1D              adc R31,R13
 0D46 2080              ldd R2,z+0
 0D48 EE2D              mov R30,R14
 0D4A FF27              clr R31
 0D4C E00F              add R30,R16
 0D4E F11F              adc R31,R17
 0D50 20A2              std z+32,R2
 0D52                   .dbline 770
 0D52           ;    }
 0D52           L182:
 0D52                   .dbline 767
 0D52 80910900          lds R24,_s
 0D56 8F5F              subi R24,255    ; addi 1
 0D58 80930900          sts _s,R24
 0D5C           L184:
 0D5C                   .dbline 767
 0D5C 87E0              ldi R24,7
 0D5E 20900900          lds R2,_s
 0D62 8215              cp R24,R2
 0D64 50F7              brsh L181
 0D66           X58:
 0D66                   .dbline 771
 0D66           ;   for(s=0;s<=7;s++)
 0D66 2224              clr R2
 0D68 20920900          sts _s,R2
 0D6C 11C0              xjmp L188
 0D6E           L185:
 0D6E                   .dbline 772
 0D6E           ;    {
 0D6E                   .dbline 773
 0D6E           ;    data_inits[s+40]=data_ff[s];
 0D6E C0900900          lds R12,_s
 0D72 EC2D              mov R30,R12
 0D74 FF27              clr R31
 0D76 EA0D              add R30,R10
 0D78 FB1D              adc R31,R11
 0D7A 2080              ldd R2,z+0
 0D7C EC2D              mov R30,R12
 0D7E FF27              clr R31
 0D80 E00F              add R30,R16
 0D82 F11F              adc R31,R17
 0D84 20A6              std z+40,R2
 0D86                   .dbline 774
 0D86           ;    }
 0D86           L186:
 0D86                   .dbline 771
 0D86 80910900          lds R24,_s
 0D8A 8F5F              subi R24,255    ; addi 1
 0D8C 80930900          sts _s,R24
 0D90           L188:
 0D90                   .dbline 771
 0D90 87E0              ldi R24,7
 0D92 20900900          lds R2,_s
 0D96 8215              cp R24,R2
 0D98 50F7              brsh L185
 0D9A           X59:
 0D9A                   .dbline -2
 0D9A           L164:
 0D9A                   .dbline 0 ; func end
 0D9A 0C940000          xjmp pop_xgsetF0FC
 0D9E                   .dbsym r data_ff 10 pc
 0D9E                   .dbsym r data_ee 12 pc
 0D9E                   .dbsym r data_dd 14 pc
 0D9E                   .dbsym r data_cc 20 pc
 0D9E                   .dbsym r data_bb 22 pc
 0D9E                   .dbsym r data_aa 18 pc
 0D9E                   .dbsym r data_inits 16 pc
 0D9E                   .dbend
 0D9E                   .dbfunc e change_dd _change_dd fc
 0D9E           ;           dd_c -> R10
 0D9E           ;            d_c -> R16
                        .even
 0D9E           _change_dd::
 0D9E AA92              st -y,R10
 0DA0                   .dbline -1
 0DA0                   .dbline 784
 0DA0           ; }
 0DA0           ; 
 0DA0           ; 
 0DA0           ; 
 0DA0           ; // d_tem 0  1  2  3  4  5  6  7  8  9  10  11  12  13  14  15 //7前左，后右
 0DA0           ; //dd_tem 0  1  2  3  4  5  6  7  6  5  4   3   2   1   0   0 //加负号左
 0DA0           ; //********************幅度档d_tem转化为左右统一的dd_tem****************
 0DA0           ; //flag_c=1时，左转d_c小于7，加负号，flag_c=0，右转d_c大于等于7
 0DA0           ; unsigned char change_dd(unsigned char d_c)
 0DA0           ; {
 0DA0                   .dbline 786
 0DA0           ;    unsigned char dd_c;
 0DA0           ;    if((d_c>=0)&&(d_c<=7))
 0DA0 0030              cpi R16,0
 0DA2 20F0              brlo L190
 0DA4           X60:
 0DA4 87E0              ldi R24,7
 0DA6 8017              cp R24,R16
 0DA8 08F0              brlo L190
 0DAA           X61:
 0DAA                   .dbline 787
 0DAA           ;    {
 0DAA                   .dbline 788
 0DAA           ;      dd_c=d_c;
 0DAA A02E              mov R10,R16
 0DAC                   .dbline 789
 0DAC           ;    }
 0DAC           L190:
 0DAC                   .dbline 790
 0DAC           ;    if((d_c>=7)&&(d_c<=14))
 0DAC 0730              cpi R16,7
 0DAE 40F0              brlo L192
 0DB0           X62:
 0DB0 8EE0              ldi R24,14
 0DB2 8017              cp R24,R16
 0DB4 28F0              brlo L192
 0DB6           X63:
 0DB6                   .dbline 791
 0DB6           ;    {
 0DB6                   .dbline 792
 0DB6           ;      dd_c=7-(d_c-7);//14-d_c
 0DB6 802F              mov R24,R16
 0DB8 8750              subi R24,7
 0DBA 97E0              ldi R25,7
 0DBC A92E              mov R10,R25
 0DBE A81A              sub R10,R24
 0DC0                   .dbline 793
 0DC0           ;    }
 0DC0           L192:
 0DC0                   .dbline 794
 0DC0           ;    if(d_c==15)
 0DC0 0F30              cpi R16,15
 0DC2 09F4              brne L194
 0DC4           X64:
 0DC4                   .dbline 795
 0DC4           ;    {
 0DC4                   .dbline 796
 0DC4           ;      dd_c=0;
 0DC4 AA24              clr R10
 0DC6                   .dbline 797
 0DC6           ;    }
 0DC6           L194:
 0DC6                   .dbline 798
 0DC6           ; return dd_c;
 0DC6 0A2D              mov R16,R10
 0DC8                   .dbline -2
 0DC8           L189:
 0DC8                   .dbline 0 ; func end
 0DC8 A990              ld R10,y+
 0DCA 0895              ret
 0DCC                   .dbsym r dd_c 10 c
 0DCC                   .dbsym r d_c 16 c
 0DCC                   .dbend
 0DCC                   .dbfunc e change_flag _change_flag fc
 0DCC           ;         flag_c -> R20
 0DCC           ;            d_c -> R16
                        .even
 0DCC           _change_flag::
 0DCC 4A93              st -y,R20
 0DCE                   .dbline -1
 0DCE                   .dbline 801
 0DCE           ; }
 0DCE           ; unsigned char change_flag(unsigned char d_c)
 0DCE           ; {
 0DCE                   .dbline 803
 0DCE           ;    unsigned char flag_c;
 0DCE           ;    if(d_c<=6)
 0DCE 86E0              ldi R24,6
 0DD0 8017              cp R24,R16
 0DD2 10F0              brlo L197
 0DD4           X65:
 0DD4                   .dbline 804
 0DD4           ;    {
 0DD4                   .dbline 805
 0DD4           ;    flag_c=1;
 0DD4 41E0              ldi R20,1
 0DD6                   .dbline 806
 0DD6           ;    }
 0DD6 01C0              xjmp L198
 0DD8           L197:
 0DD8                   .dbline 808
 0DD8           ;    else
 0DD8           ;    {
 0DD8                   .dbline 809
 0DD8           ;    flag_c=0;
 0DD8 4427              clr R20
 0DDA                   .dbline 810
 0DDA           ;    }
 0DDA           L198:
 0DDA                   .dbline 811
 0DDA           ;    return flag_c;
 0DDA 042F              mov R16,R20
 0DDC                   .dbline -2
 0DDC           L196:
 0DDC                   .dbline 0 ; func end
 0DDC 4991              ld R20,y+
 0DDE 0895              ret
 0DE0                   .dbsym r flag_c 20 c
 0DE0                   .dbsym r d_c 16 c
 0DE0                   .dbend
 0DE0                   .dbfunc e i2c_write _i2c_write fV
 0DE0           ;              i -> R10,R11
 0DE0           ;         data_l -> R22
 0DE0           ;       data_tem -> R12,R13
 0DE0           ;       data_i2c -> R20,R21
 0DE0           ;    i2c_address -> R14
                        .even
 0DE0           _i2c_write::
 0DE0 0E940000          xcall push_xgsetF0FC
 0DE4 A901              movw R20,R18
 0DE6 E02E              mov R14,R16
 0DE8 CA84              ldd R12,y+10
 0DEA DB84              ldd R13,y+11
 0DEC 6C85              ldd R22,y+12
 0DEE                   .dbline -1
 0DEE                   .dbline 820
 0DEE           ; }
 0DEE           ; 
 0DEE           ; 
 0DEE           ; //********************************读写i2c****************************************
 0DEE           ; //写i2c
 0DEE           ; //将长度为data_l的data_tem数组写入地址为i2c_address的data_i2c数组
 0DEE           ; //unsigend char型
 0DEE           ; void i2c_write(unsigned char i2c_address,unsigned char *data_i2c,unsigned char *data_tem,unsigned char data_l)
 0DEE           ; {
 0DEE                   .dbline 821
 0DEE           ;       int i=0;
 0DEE                   .dbline 822
 0DEE           ;         data_i2c[0]=SLA_W;
 0DEE 80EA              ldi R24,160
 0DF0 FA01              movw R30,R20
 0DF2 8083              std z+0,R24
 0DF4                   .dbline 823
 0DF4           ;         data_i2c[1]=i2c_address;
 0DF4 E182              std z+1,R14
 0DF6                   .dbline 824
 0DF6           ;         for(i=0;i<=data_l-1;i++)
 0DF6 AA24              clr R10
 0DF8 BB24              clr R11
 0DFA 0BC0              xjmp L203
 0DFC           L200:
 0DFC                   .dbline 825
 0DFC           ;         {
 0DFC                   .dbline 826
 0DFC           ;            data_i2c[i+2]=data_tem[i];
 0DFC F501              movw R30,R10
 0DFE EC0D              add R30,R12
 0E00 FD1D              adc R31,R13
 0E02 2080              ldd R2,z+0
 0E04 F501              movw R30,R10
 0E06 E40F              add R30,R20
 0E08 F51F              adc R31,R21
 0E0A 2282              std z+2,R2
 0E0C                   .dbline 827
 0E0C           ;         }
 0E0C           L201:
 0E0C                   .dbline 824
 0E0C C501              movw R24,R10
 0E0E 0196              adiw R24,1
 0E10 5C01              movw R10,R24
 0E12           L203:
 0E12                   .dbline 824
 0E12 862F              mov R24,R22
 0E14 9927              clr R25
 0E16 0197              sbiw R24,1
 0E18 8A15              cp R24,R10
 0E1A 9B05              cpc R25,R11
 0E1C 7CF7              brge L200
 0E1E           X66:
 0E1E                   .dbline 828
 0E1E           ;         TWI_Start_Transceiver_With_Data(data_i2c,data_l+2);
 0E1E 262F              mov R18,R22
 0E20 2E5F              subi R18,254    ; addi 2
 0E22 8A01              movw R16,R20
 0E24 0E940000          xcall _TWI_Start_Transceiver_With_Data
 0E28                   .dbline -2
 0E28           L199:
 0E28                   .dbline 0 ; func end
 0E28 0C940000          xjmp pop_xgsetF0FC
 0E2C                   .dbsym r i 10 I
 0E2C                   .dbsym r data_l 22 c
 0E2C                   .dbsym r data_tem 12 pc
 0E2C                   .dbsym r data_i2c 20 pc
 0E2C                   .dbsym r i2c_address 14 c
 0E2C                   .dbend
 0E2C                   .dbfunc e i2c_read _i2c_read fV
 0E2C           ;              i -> R20,R21
 0E2C           ;         data_l -> R10
 0E2C           ;       data_tem -> R12,R13
 0E2C           ;       data_i2c -> R22,R23
 0E2C           ;    i2c_address -> R14
                        .even
 0E2C           _i2c_read::
 0E2C 0E940000          xcall push_xgsetF0FC
 0E30 B901              movw R22,R18
 0E32 E02E              mov R14,R16
 0E34 CA84              ldd R12,y+10
 0E36 DB84              ldd R13,y+11
 0E38 AC84              ldd R10,y+12
 0E3A                   .dbline -1
 0E3A                   .dbline 835
 0E3A           ; }
 0E3A           ; 
 0E3A           ; //读i2c
 0E3A           ; //将长度为data_l的地址为i2c_address的data_i2c数组读出到data_tem
 0E3A           ; //unsigned char型
 0E3A           ; void i2c_read(unsigned char i2c_address,unsigned char *data_i2c,unsigned char *data_tem,unsigned char data_l)
 0E3A           ; {
 0E3A                   .dbline 836
 0E3A           ;       int i=0;
 0E3A                   .dbline 837
 0E3A           ;         data_i2c[0]=SLA_W;
 0E3A 80EA              ldi R24,160
 0E3C FB01              movw R30,R22
 0E3E 8083              std z+0,R24
 0E40                   .dbline 838
 0E40           ;         data_i2c[1]=i2c_address;
 0E40 E182              std z+1,R14
 0E42                   .dbline 839
 0E42           ;         TWI_Start_Transceiver_With_Data(data_i2c,2);
 0E42 22E0              ldi R18,2
 0E44 8F01              movw R16,R30
 0E46 0E940000          xcall _TWI_Start_Transceiver_With_Data
 0E4A                   .dbline 840
 0E4A           ;         data_i2c[0]=SLA_R;
 0E4A 81EA              ldi R24,161
 0E4C FB01              movw R30,R22
 0E4E 8083              std z+0,R24
 0E50                   .dbline 841
 0E50           ;         TWI_Start_Transceiver_With_Data(data_i2c,data_l+1);
 0E50 2A2D              mov R18,R10
 0E52 2F5F              subi R18,255    ; addi 1
 0E54 8F01              movw R16,R30
 0E56 0E940000          xcall _TWI_Start_Transceiver_With_Data
 0E5A                   .dbline 842
 0E5A           ;         TWI_Get_Data_From_Transceiver(data_i2c,data_l+1);
 0E5A 2A2D              mov R18,R10
 0E5C 2F5F              subi R18,255    ; addi 1
 0E5E 8B01              movw R16,R22
 0E60 0E940000          xcall _TWI_Get_Data_From_Transceiver
 0E64                   .dbline 843
 0E64           ;         for(i=0;i<=data_l-1;i++)
 0E64 4427              clr R20
 0E66 5527              clr R21
 0E68 0AC0              xjmp L208
 0E6A           L205:
 0E6A                   .dbline 844
 0E6A           ;         {
 0E6A                   .dbline 845
 0E6A           ;            data_tem[i]=data_i2c[i+1];
 0E6A FA01              movw R30,R20
 0E6C E60F              add R30,R22
 0E6E F71F              adc R31,R23
 0E70 2180              ldd R2,z+1
 0E72 FA01              movw R30,R20
 0E74 EC0D              add R30,R12
 0E76 FD1D              adc R31,R13
 0E78 2082              std z+0,R2
 0E7A                   .dbline 846
 0E7A           ;         }                             
 0E7A           L206:
 0E7A                   .dbline 843
 0E7A 4F5F              subi R20,255  ; offset = 1
 0E7C 5F4F              sbci R21,255
 0E7E           L208:
 0E7E                   .dbline 843
 0E7E 8A2D              mov R24,R10
 0E80 9927              clr R25
 0E82 0197              sbiw R24,1
 0E84 8417              cp R24,R20
 0E86 9507              cpc R25,R21
 0E88 84F7              brge L205
 0E8A           X67:
 0E8A                   .dbline -2
 0E8A           L204:
 0E8A                   .dbline 0 ; func end
 0E8A 0C940000          xjmp pop_xgsetF0FC
 0E8E                   .dbsym r i 20 I
 0E8E                   .dbsym r data_l 10 c
 0E8E                   .dbsym r data_tem 12 pc
 0E8E                   .dbsym r data_i2c 22 pc
 0E8E                   .dbsym r i2c_address 14 c
 0E8E                   .dbend
 0E8E                   .dbfunc e i2c_init _i2c_init fV
 0E8E           ;              i -> R20,R21
                        .even
 0E8E           _i2c_init::
 0E8E 4A93              st -y,R20
 0E90 5A93              st -y,R21
 0E92 2A97              sbiw R28,10
 0E94                   .dbline -1
 0E94                   .dbline 852
 0E94           ; }
 0E94           ; 
 0E94           ; 
 0E94           ; //***********************第一次使用i2c，数据初始化*******************************
 0E94           ; void i2c_init(void)
 0E94           ; {     
 0E94                   .dbline 854
 0E94           ;       int i;
 0E94           ;         senddata(0xab);
 0E94 0BEA              ldi R16,171
 0E96 5FD9              xcall _senddata
 0E98                   .dbline 855
 0E98           ;         switch(redata_i2c&0x0f)
 0E98 40910000          lds R20,_redata_i2c
 0E9C 5527              clr R21
 0E9E 4F70              andi R20,15
 0EA0 5070              andi R21,0
 0EA2 4130              cpi R20,1
 0EA4 E0E0              ldi R30,0
 0EA6 5E07              cpc R21,R30
 0EA8 09F4              brne X83
 0EAA 38C0              xjmp L213
 0EAC           X83:
 0EAC           X68:
 0EAC 4230              cpi R20,2
 0EAE E0E0              ldi R30,0
 0EB0 5E07              cpc R21,R30
 0EB2 09F4              brne X84
 0EB4 3EC0              xjmp L214
 0EB6           X84:
 0EB6           X69:
 0EB6 4330              cpi R20,3
 0EB8 E0E0              ldi R30,0
 0EBA 5E07              cpc R21,R30
 0EBC 09F4              brne X85
 0EBE 44C0              xjmp L215
 0EC0           X85:
 0EC0           X70:
 0EC0 4430              cpi R20,4
 0EC2 E0E0              ldi R30,0
 0EC4 5E07              cpc R21,R30
 0EC6 09F4              brne X86
 0EC8 4AC0              xjmp L216
 0ECA           X86:
 0ECA           X71:
 0ECA 4530              cpi R20,5
 0ECC E0E0              ldi R30,0
 0ECE 5E07              cpc R21,R30
 0ED0 09F4              brne X87
 0ED2 66C0              xjmp L217
 0ED4           X87:
 0ED4           X72:
 0ED4 4630              cpi R20,6
 0ED6 E0E0              ldi R30,0
 0ED8 5E07              cpc R21,R30
 0EDA 09F4              brne X88
 0EDC 6CC0              xjmp L218
 0EDE           X88:
 0EDE           X73:
 0EDE 4730              cpi R20,7
 0EE0 E0E0              ldi R30,0
 0EE2 5E07              cpc R21,R30
 0EE4 09F4              brne X89
 0EE6 98C0              xjmp L219
 0EE8           X89:
 0EE8           X74:
 0EE8 4830              cpi R20,8
 0EEA E0E0              ldi R30,0
 0EEC 5E07              cpc R21,R30
 0EEE 09F4              brne X90
 0EF0 ABC0              xjmp L220
 0EF2           X90:
 0EF2           X75:
 0EF2 4930              cpi R20,9
 0EF4 E0E0              ldi R30,0
 0EF6 5E07              cpc R21,R30
 0EF8 09F4              brne X91
 0EFA B1C0              xjmp L221
 0EFC           X91:
 0EFC           X76:
 0EFC 4A30              cpi R20,10
 0EFE E0E0              ldi R30,0
 0F00 5E07              cpc R21,R30
 0F02 09F4              brne X92
 0F04 B7C0              xjmp L222
 0F06           X92:
 0F06           X77:
 0F06 4B30              cpi R20,11
 0F08 E0E0              ldi R30,0
 0F0A 5E07              cpc R21,R30
 0F0C 09F4              brne X93
 0F0E CAC0              xjmp L223
 0F10           X93:
 0F10           X78:
 0F10 4C30              cpi R20,12
 0F12 E0E0              ldi R30,0
 0F14 5E07              cpc R21,R30
 0F16 09F4              brne X94
 0F18 DEC0              xjmp L224
 0F1A           X94:
 0F1A           X79:
 0F1A 0EC2              xjmp L210
 0F1C           L213:
 0F1C                   .dbline 858
 0F1C           ;         {
 0F1C           ;           case 0x01://FISHID 设为0x01;
 0F1C           ;                         i2c_write(ADD_i,FISHID_I2C,FISHID_init,1); 
 0F1C 81E0              ldi R24,1
 0F1E 8A83              std y+2,R24
 0F20 80E0              ldi R24,<_FISHID_init
 0F22 90E0              ldi R25,>_FISHID_init
 0F24 9983              std y+1,R25
 0F26 8883              std y+0,R24
 0F28 20E0              ldi R18,<_FISHID_I2C
 0F2A 30E0              ldi R19,>_FISHID_I2C
 0F2C 00E1              ldi R16,16
 0F2E 58DF              xcall _i2c_write
 0F30                   .dbline 859
 0F30           ;                                 break;
 0F30 03C2              xjmp L211
 0F32           L214:
 0F32                   .dbline 861
 0F32           ;               case 0x02://频率设为频率1
 0F32           ;                         i2c_write(ADD_f,freqs_I2C,freqs_init,1);
 0F32 81E0              ldi R24,1
 0F34 8A83              std y+2,R24
 0F36 80E0              ldi R24,<_freqs_init
 0F38 90E0              ldi R25,>_freqs_init
 0F3A 9983              std y+1,R25
 0F3C 8883              std y+0,R24
 0F3E 20E0              ldi R18,<_freqs_I2C
 0F40 30E0              ldi R19,>_freqs_I2C
 0F42 00E2              ldi R16,32
 0F44 4DDF              xcall _i2c_write
 0F46                   .dbline 862
 0F46           ;                                 break;
 0F46 F8C1              xjmp L211
 0F48           L215:
 0F48                   .dbline 864
 0F48           ;           case 0x03://调直数据
 0F48           ;                         i2c_write(ADD_t,degree_I2C,Static_Offset_degree_init,3);
 0F48 83E0              ldi R24,3
 0F4A 8A83              std y+2,R24
 0F4C 80E0              ldi R24,<_Static_Offset_degree_init
 0F4E 90E0              ldi R25,>_Static_Offset_degree_init
 0F50 9983              std y+1,R25
 0F52 8883              std y+0,R24
 0F54 20E0              ldi R18,<_degree_I2C
 0F56 30E0              ldi R19,>_degree_I2C
 0F58 00E3              ldi R16,48
 0F5A 42DF              xcall _i2c_write
 0F5C                   .dbline 865
 0F5C           ;                                 break;
 0F5C EDC1              xjmp L211
 0F5E           L216:
 0F5E                   .dbline 867
 0F5E           ;               case 0x04://Speed_tem[16]速度，s_tem
 0F5E           ;                         one2two(Speed_tem_init,Speed_tem_init1,Speed_tem_init2);
 0F5E 80E0              ldi R24,<_Speed_tem_init2
 0F60 90E0              ldi R25,>_Speed_tem_init2
 0F62 9983              std y+1,R25
 0F64 8883              std y+0,R24
 0F66 20E0              ldi R18,<_Speed_tem_init1
 0F68 30E0              ldi R19,>_Speed_tem_init1
 0F6A 00E0              ldi R16,<_Speed_tem_init
 0F6C 10E0              ldi R17,>_Speed_tem_init
 0F6E 99DC              xcall _one2two
 0F70                   .dbline 868
 0F70           ;                         i2c_write(ADD_s1,Speed_tem_I2C1,Speed_tem_init1,8);
 0F70 88E0              ldi R24,8
 0F72 8A83              std y+2,R24
 0F74 80E0              ldi R24,<_Speed_tem_init1
 0F76 90E0              ldi R25,>_Speed_tem_init1
 0F78 9983              std y+1,R25
 0F7A 8883              std y+0,R24
 0F7C 20E0              ldi R18,<_Speed_tem_I2C1
 0F7E 30E0              ldi R19,>_Speed_tem_I2C1
 0F80 00E4              ldi R16,64
 0F82 2EDF              xcall _i2c_write
 0F84                   .dbline 869
 0F84           ;                                 delay_nms(200);
 0F84 08EC              ldi R16,200
 0F86 10E0              ldi R17,0
 0F88 72D8              xcall _delay_nms
 0F8A                   .dbline 870
 0F8A           ;                         i2c_write(ADD_s2,Speed_tem_I2C2,Speed_tem_init2,8);
 0F8A 88E0              ldi R24,8
 0F8C 8A83              std y+2,R24
 0F8E 80E0              ldi R24,<_Speed_tem_init2
 0F90 90E0              ldi R25,>_Speed_tem_init2
 0F92 9983              std y+1,R25
 0F94 8883              std y+0,R24
 0F96 20E0              ldi R18,<_Speed_tem_I2C2
 0F98 30E0              ldi R19,>_Speed_tem_I2C2
 0F9A 08E4              ldi R16,72
 0F9C 21DF              xcall _i2c_write
 0F9E                   .dbline 871
 0F9E           ;                                 break;
 0F9E CCC1              xjmp L211
 0FA0           L217:
 0FA0                   .dbline 873
 0FA0           ;           case 0x05://Neighbouring_Offset_degree[3]滞后角
 0FA0           ;                             i2c_write(ADD_d,Neighbouring_Offset_degree_I2C,Neighbouring_Offset_degree_init,3);                 
 0FA0 83E0              ldi R24,3
 0FA2 8A83              std y+2,R24
 0FA4 80E0              ldi R24,<_Neighbouring_Offset_degree_init
 0FA6 90E0              ldi R25,>_Neighbouring_Offset_degree_init
 0FA8 9983              std y+1,R25
 0FAA 8883              std y+0,R24
 0FAC 20E0              ldi R18,<_Neighbouring_Offset_degree_I2C
 0FAE 30E0              ldi R19,>_Neighbouring_Offset_degree_I2C
 0FB0 00E5              ldi R16,80
 0FB2 16DF              xcall _i2c_write
 0FB4                   .dbline 874
 0FB4           ;                                 break;
 0FB4 C1C1              xjmp L211
 0FB6           L218:
 0FB6                   .dbline 876
 0FB6           ;           case 0x06://Amplitude_degree_tem[16][3]摆幅,s_tem
 0FB6           ;                         one2six(Amplitude_degree_tem_init,Amplitude_degree_tem_init1,Amplitude_degree_tem_init2,Amplitude_degree_tem_init3,Amplitude_degree_tem_init4,Amplitude_degree_tem_init5,Amplitude_degree_tem_init6);
 0FB6 80E0              ldi R24,<_Amplitude_degree_tem_init6
 0FB8 90E0              ldi R25,>_Amplitude_degree_tem_init6
 0FBA 9987              std y+9,R25
 0FBC 8887              std y+8,R24
 0FBE 80E0              ldi R24,<_Amplitude_degree_tem_init5
 0FC0 90E0              ldi R25,>_Amplitude_degree_tem_init5
 0FC2 9F83              std y+7,R25
 0FC4 8E83              std y+6,R24
 0FC6 80E0              ldi R24,<_Amplitude_degree_tem_init4
 0FC8 90E0              ldi R25,>_Amplitude_degree_tem_init4
 0FCA 9D83              std y+5,R25
 0FCC 8C83              std y+4,R24
 0FCE 80E0              ldi R24,<_Amplitude_degree_tem_init3
 0FD0 90E0              ldi R25,>_Amplitude_degree_tem_init3
 0FD2 9B83              std y+3,R25
 0FD4 8A83              std y+2,R24
 0FD6 80E0              ldi R24,<_Amplitude_degree_tem_init2
 0FD8 90E0              ldi R25,>_Amplitude_degree_tem_init2
 0FDA 9983              std y+1,R25
 0FDC 8883              std y+0,R24
 0FDE 20E0              ldi R18,<_Amplitude_degree_tem_init1
 0FE0 30E0              ldi R19,>_Amplitude_degree_tem_init1
 0FE2 00E0              ldi R16,<_Amplitude_degree_tem_init
 0FE4 10E0              ldi R17,>_Amplitude_degree_tem_init
 0FE6 82DD              xcall _one2six
 0FE8                   .dbline 877
 0FE8           ;                                 i2c_write(ADD_1,Amplitude_degree_tem_I2C1,Amplitude_degree_tem_init1,8);//+++++++
 0FE8 88E0              ldi R24,8
 0FEA 8A83              std y+2,R24
 0FEC 80E0              ldi R24,<_Amplitude_degree_tem_init1
 0FEE 90E0              ldi R25,>_Amplitude_degree_tem_init1
 0FF0 9983              std y+1,R25
 0FF2 8883              std y+0,R24
 0FF4 20E0              ldi R18,<_Amplitude_degree_tem_I2C1
 0FF6 30E0              ldi R19,>_Amplitude_degree_tem_I2C1
 0FF8 00E6              ldi R16,96
 0FFA F2DE              xcall _i2c_write
 0FFC                   .dbline 878
 0FFC           ;                                 delay_nms(200);
 0FFC 08EC              ldi R16,200
 0FFE 10E0              ldi R17,0
 1000 36D8              xcall _delay_nms
 1002                   .dbline 879
 1002           ;                                 i2c_write(ADD_2,Amplitude_degree_tem_I2C2,Amplitude_degree_tem_init2,8);//+++++++
 1002 88E0              ldi R24,8
 1004 8A83              std y+2,R24
 1006 80E0              ldi R24,<_Amplitude_degree_tem_init2
 1008 90E0              ldi R25,>_Amplitude_degree_tem_init2
 100A 9983              std y+1,R25
 100C 8883              std y+0,R24
 100E 20E0              ldi R18,<_Amplitude_degree_tem_I2C2
 1010 30E0              ldi R19,>_Amplitude_degree_tem_I2C2
 1012 08E6              ldi R16,104
 1014 E5DE              xcall _i2c_write
 1016                   .dbline 880
 1016           ;                         break;
 1016 90C1              xjmp L211
 1018           L219:
 1018                   .dbline 882
 1018           ;               case 0x07:
 1018           ;                                 i2c_write(ADD_3,Amplitude_degree_tem_I2C3,Amplitude_degree_tem_init3,8);//+++++++
 1018 88E0              ldi R24,8
 101A 8A83              std y+2,R24
 101C 80E0              ldi R24,<_Amplitude_degree_tem_init3
 101E 90E0              ldi R25,>_Amplitude_degree_tem_init3
 1020 9983              std y+1,R25
 1022 8883              std y+0,R24
 1024 20E0              ldi R18,<_Amplitude_degree_tem_I2C3
 1026 30E0              ldi R19,>_Amplitude_degree_tem_I2C3
 1028 00E7              ldi R16,112
 102A DADE              xcall _i2c_write
 102C                   .dbline 883
 102C           ;                                 delay_nms(200);
 102C 08EC              ldi R16,200
 102E 10E0              ldi R17,0
 1030 1ED8              xcall _delay_nms
 1032                   .dbline 884
 1032           ;                                 i2c_write(ADD_4,Amplitude_degree_tem_I2C4,Amplitude_degree_tem_init4,8);
 1032 88E0              ldi R24,8
 1034 8A83              std y+2,R24
 1036 80E0              ldi R24,<_Amplitude_degree_tem_init4
 1038 90E0              ldi R25,>_Amplitude_degree_tem_init4
 103A 9983              std y+1,R25
 103C 8883              std y+0,R24
 103E 20E0              ldi R18,<_Amplitude_degree_tem_I2C4
 1040 30E0              ldi R19,>_Amplitude_degree_tem_I2C4
 1042 08E7              ldi R16,120
 1044 CDDE              xcall _i2c_write
 1046                   .dbline 885
 1046           ;                                 break;
 1046 78C1              xjmp L211
 1048           L220:
 1048                   .dbline 887
 1048           ;               case 0x08:
 1048           ;                                 i2c_write(ADD_5,Amplitude_degree_tem_I2C5,Amplitude_degree_tem_init5,8);
 1048 88E0              ldi R24,8
 104A 8A83              std y+2,R24
 104C 80E0              ldi R24,<_Amplitude_degree_tem_init5
 104E 90E0              ldi R25,>_Amplitude_degree_tem_init5
 1050 9983              std y+1,R25
 1052 8883              std y+0,R24
 1054 20E0              ldi R18,<_Amplitude_degree_tem_I2C5
 1056 30E0              ldi R19,>_Amplitude_degree_tem_I2C5
 1058 00E8              ldi R16,128
 105A C2DE              xcall _i2c_write
 105C                   .dbline 888
 105C           ;                                 break;
 105C 6DC1              xjmp L211
 105E           L221:
 105E                   .dbline 890
 105E           ;               case 0x09:
 105E           ;                                 i2c_write(ADD_6,Amplitude_degree_tem_I2C6,Amplitude_degree_tem_init6,8);                                
 105E 88E0              ldi R24,8
 1060 8A83              std y+2,R24
 1062 80E0              ldi R24,<_Amplitude_degree_tem_init6
 1064 90E0              ldi R25,>_Amplitude_degree_tem_init6
 1066 9983              std y+1,R25
 1068 8883              std y+0,R24
 106A 20E0              ldi R18,<_Amplitude_degree_tem_I2C6
 106C 30E0              ldi R19,>_Amplitude_degree_tem_I2C6
 106E 08E8              ldi R16,136
 1070 B7DE              xcall _i2c_write
 1072                   .dbline 891
 1072           ;                   break;
 1072 62C1              xjmp L211
 1074           L222:
 1074                   .dbline 893
 1074           ;           case 0x0A://Dynamic_Offset_degree_origin[8][3]转弯偏移角,d_tem
 1074           ;                         one2three(Dynamic_Offset_degree_origin_init,Dynamic_Offset_degree_origin_init1,Dynamic_Offset_degree_origin_init2,Dynamic_Offset_degree_origin_init3);
 1074 80E0              ldi R24,<_Dynamic_Offset_degree_origin_init3
 1076 90E0              ldi R25,>_Dynamic_Offset_degree_origin_init3
 1078 9B83              std y+3,R25
 107A 8A83              std y+2,R24
 107C 80E0              ldi R24,<_Dynamic_Offset_degree_origin_init2
 107E 90E0              ldi R25,>_Dynamic_Offset_degree_origin_init2
 1080 9983              std y+1,R25
 1082 8883              std y+0,R24
 1084 20E0              ldi R18,<_Dynamic_Offset_degree_origin_init1
 1086 30E0              ldi R19,>_Dynamic_Offset_degree_origin_init1
 1088 00E0              ldi R16,<_Dynamic_Offset_degree_origin_init
 108A 10E0              ldi R17,>_Dynamic_Offset_degree_origin_init
 108C 81DC              xcall _one2three
 108E                   .dbline 894
 108E           ;                                 i2c_write(ADD_10,Dynamic_Offset_degree_origin_I2C1,Dynamic_Offset_degree_origin_init1,8);//+++++++
 108E 88E0              ldi R24,8
 1090 8A83              std y+2,R24
 1092 80E0              ldi R24,<_Dynamic_Offset_degree_origin_init1
 1094 90E0              ldi R25,>_Dynamic_Offset_degree_origin_init1
 1096 9983              std y+1,R25
 1098 8883              std y+0,R24
 109A 20E0              ldi R18,<_Dynamic_Offset_degree_origin_I2C1
 109C 30E0              ldi R19,>_Dynamic_Offset_degree_origin_I2C1
 109E 00E9              ldi R16,144
 10A0 9FDE              xcall _i2c_write
 10A2                   .dbline 895
 10A2           ;                         break;
 10A2 4AC1              xjmp L211
 10A4           L223:
 10A4                   .dbline 897
 10A4           ;               case 0x0B:
 10A4           ;                                 i2c_write(ADD_20,Dynamic_Offset_degree_origin_I2C2,Dynamic_Offset_degree_origin_init2,8);//+++++++
 10A4 88E0              ldi R24,8
 10A6 8A83              std y+2,R24
 10A8 80E0              ldi R24,<_Dynamic_Offset_degree_origin_init2
 10AA 90E0              ldi R25,>_Dynamic_Offset_degree_origin_init2
 10AC 9983              std y+1,R25
 10AE 8883              std y+0,R24
 10B0 20E0              ldi R18,<_Dynamic_Offset_degree_origin_I2C2
 10B2 30E0              ldi R19,>_Dynamic_Offset_degree_origin_I2C2
 10B4 08E9              ldi R16,152
 10B6 94DE              xcall _i2c_write
 10B8                   .dbline 898
 10B8           ;                                 delay_nms(200);
 10B8 08EC              ldi R16,200
 10BA 10E0              ldi R17,0
 10BC 0E943700          xcall _delay_nms
 10C0                   .dbline 899
 10C0           ;                                 i2c_write(ADD_30,Dynamic_Offset_degree_origin_I2C3,Dynamic_Offset_degree_origin_init3,8);
 10C0 88E0              ldi R24,8
 10C2 8A83              std y+2,R24
 10C4 80E0              ldi R24,<_Dynamic_Offset_degree_origin_init3
 10C6 90E0              ldi R25,>_Dynamic_Offset_degree_origin_init3
 10C8 9983              std y+1,R25
 10CA 8883              std y+0,R24
 10CC 20E0              ldi R18,<_Dynamic_Offset_degree_origin_I2C3
 10CE 30E0              ldi R19,>_Dynamic_Offset_degree_origin_I2C3
 10D0 00EA              ldi R16,160
 10D2 86DE              xcall _i2c_write
 10D4                   .dbline 900
 10D4           ;                                 break;
 10D4 31C1              xjmp L211
 10D6           L224:
 10D6                   .dbline 902
 10D6           ;           case 0x0C:
 10D6           ;                                 delay_nms(200);
 10D6 08EC              ldi R16,200
 10D8 10E0              ldi R17,0
 10DA 0E943700          xcall _delay_nms
 10DE                   .dbline 904
 10DE           ;                        //读i2c数据
 10DE           ;                                i2c_read(ADD_i,FISHID_I2C,FISHID,1);
 10DE 81E0              ldi R24,1
 10E0 8A83              std y+2,R24
 10E2 80E0              ldi R24,<_FISHID
 10E4 90E0              ldi R25,>_FISHID
 10E6 9983              std y+1,R25
 10E8 8883              std y+0,R24
 10EA 20E0              ldi R18,<_FISHID_I2C
 10EC 30E0              ldi R19,>_FISHID_I2C
 10EE 00E1              ldi R16,16
 10F0 9DDE              xcall _i2c_read
 10F2                   .dbline 905
 10F2           ;                        i2c_read(ADD_f,freqs_I2C,freqs,1);
 10F2 81E0              ldi R24,1
 10F4 8A83              std y+2,R24
 10F6 80E0              ldi R24,<_freqs
 10F8 90E0              ldi R25,>_freqs
 10FA 9983              std y+1,R25
 10FC 8883              std y+0,R24
 10FE 20E0              ldi R18,<_freqs_I2C
 1100 30E0              ldi R19,>_freqs_I2C
 1102 00E2              ldi R16,32
 1104 93DE              xcall _i2c_read
 1106                   .dbline 907
 1106           ;                                //PORTD=freq[freqs[0]];
 1106           ;                                i2c_read(ADD_t,degree_I2C,Static_Offset_degree,3);
 1106 83E0              ldi R24,3
 1108 8A83              std y+2,R24
 110A 80E0              ldi R24,<_Static_Offset_degree
 110C 90E0              ldi R25,>_Static_Offset_degree
 110E 9983              std y+1,R25
 1110 8883              std y+0,R24
 1112 20E0              ldi R18,<_degree_I2C
 1114 30E0              ldi R19,>_degree_I2C
 1116 00E3              ldi R16,48
 1118 89DE              xcall _i2c_read
 111A                   .dbline 908
 111A           ;                                i2c_read(ADD_s1,Speed_tem_I2C1,Speed_tem_z1,8);
 111A 88E0              ldi R24,8
 111C 8A83              std y+2,R24
 111E 80E0              ldi R24,<_Speed_tem_z1
 1120 90E0              ldi R25,>_Speed_tem_z1
 1122 9983              std y+1,R25
 1124 8883              std y+0,R24
 1126 20E0              ldi R18,<_Speed_tem_I2C1
 1128 30E0              ldi R19,>_Speed_tem_I2C1
 112A 00E4              ldi R16,64
 112C 7FDE              xcall _i2c_read
 112E                   .dbline 909
 112E           ;                                i2c_read(ADD_s2,Speed_tem_I2C2,Speed_tem_z2,8);
 112E 88E0              ldi R24,8
 1130 8A83              std y+2,R24
 1132 80E0              ldi R24,<_Speed_tem_z2
 1134 90E0              ldi R25,>_Speed_tem_z2
 1136 9983              std y+1,R25
 1138 8883              std y+0,R24
 113A 20E0              ldi R18,<_Speed_tem_I2C2
 113C 30E0              ldi R19,>_Speed_tem_I2C2
 113E 08E4              ldi R16,72
 1140 75DE              xcall _i2c_read
 1142                   .dbline 910
 1142           ;                                two2one(Speed_tem_z,Speed_tem_z1,Speed_tem_z2);
 1142 80E0              ldi R24,<_Speed_tem_z2
 1144 90E0              ldi R25,>_Speed_tem_z2
 1146 9983              std y+1,R25
 1148 8883              std y+0,R24
 114A 20E0              ldi R18,<_Speed_tem_z1
 114C 30E0              ldi R19,>_Speed_tem_z1
 114E 00E0              ldi R16,<_Speed_tem_z
 1150 10E0              ldi R17,>_Speed_tem_z
 1152 E3DB              xcall _two2one
 1154                   .dbline 911
 1154           ;                                for(i=0;i<=15;i++)
 1154 4427              clr R20
 1156 5527              clr R21
 1158           L225:
 1158                   .dbline 912
 1158           ;                                {
 1158                   .dbline 913
 1158           ;                      Speed_tem[i]=Speed_tem_z[i];
 1158 80E0              ldi R24,<_Speed_tem_z
 115A 90E0              ldi R25,>_Speed_tem_z
 115C FA01              movw R30,R20
 115E E80F              add R30,R24
 1160 F91F              adc R31,R25
 1162 2080              ldd R2,z+0
 1164 80E0              ldi R24,<_Speed_tem
 1166 90E0              ldi R25,>_Speed_tem
 1168 FA01              movw R30,R20
 116A E80F              add R30,R24
 116C F91F              adc R31,R25
 116E 2082              std z+0,R2
 1170                   .dbline 914
 1170           ;                                }
 1170           L226:
 1170                   .dbline 911
 1170 4F5F              subi R20,255  ; offset = 1
 1172 5F4F              sbci R21,255
 1174                   .dbline 911
 1174 8FE0              ldi R24,15
 1176 90E0              ldi R25,0
 1178 8417              cp R24,R20
 117A 9507              cpc R25,R21
 117C 6CF7              brge L225
 117E           X80:
 117E                   .dbline 915
 117E           ;                                i2c_read(ADD_d,Neighbouring_Offset_degree_I2C,Neighbouring_Offset_degree,3);
 117E 83E0              ldi R24,3
 1180 8A83              std y+2,R24
 1182 80E0              ldi R24,<_Neighbouring_Offset_degree
 1184 90E0              ldi R25,>_Neighbouring_Offset_degree
 1186 9983              std y+1,R25
 1188 8883              std y+0,R24
 118A 20E0              ldi R18,<_Neighbouring_Offset_degree_I2C
 118C 30E0              ldi R19,>_Neighbouring_Offset_degree_I2C
 118E 00E5              ldi R16,80
 1190 4DDE              xcall _i2c_read
 1192                   .dbline 916
 1192           ;                                i2c_read(ADD_1,Amplitude_degree_tem_I2C1,Amplitude_degree_tem_z1,8);
 1192 88E0              ldi R24,8
 1194 8A83              std y+2,R24
 1196 80E0              ldi R24,<_Amplitude_degree_tem_z1
 1198 90E0              ldi R25,>_Amplitude_degree_tem_z1
 119A 9983              std y+1,R25
 119C 8883              std y+0,R24
 119E 20E0              ldi R18,<_Amplitude_degree_tem_I2C1
 11A0 30E0              ldi R19,>_Amplitude_degree_tem_I2C1
 11A2 00E6              ldi R16,96
 11A4 43DE              xcall _i2c_read
 11A6                   .dbline 917
 11A6           ;                                i2c_read(ADD_2,Amplitude_degree_tem_I2C2,Amplitude_degree_tem_z2,8);
 11A6 88E0              ldi R24,8
 11A8 8A83              std y+2,R24
 11AA 80E0              ldi R24,<_Amplitude_degree_tem_z2
 11AC 90E0              ldi R25,>_Amplitude_degree_tem_z2
 11AE 9983              std y+1,R25
 11B0 8883              std y+0,R24
 11B2 20E0              ldi R18,<_Amplitude_degree_tem_I2C2
 11B4 30E0              ldi R19,>_Amplitude_degree_tem_I2C2
 11B6 08E6              ldi R16,104
 11B8 39DE              xcall _i2c_read
 11BA                   .dbline 918
 11BA           ;                                i2c_read(ADD_3,Amplitude_degree_tem_I2C3,Amplitude_degree_tem_z3,8);
 11BA 88E0              ldi R24,8
 11BC 8A83              std y+2,R24
 11BE 80E0              ldi R24,<_Amplitude_degree_tem_z3
 11C0 90E0              ldi R25,>_Amplitude_degree_tem_z3
 11C2 9983              std y+1,R25
 11C4 8883              std y+0,R24
 11C6 20E0              ldi R18,<_Amplitude_degree_tem_I2C3
 11C8 30E0              ldi R19,>_Amplitude_degree_tem_I2C3
 11CA 00E7              ldi R16,112
 11CC 2FDE              xcall _i2c_read
 11CE                   .dbline 919
 11CE           ;                                i2c_read(ADD_4,Amplitude_degree_tem_I2C4,Amplitude_degree_tem_z4,8);
 11CE 88E0              ldi R24,8
 11D0 8A83              std y+2,R24
 11D2 80E0              ldi R24,<_Amplitude_degree_tem_z4
 11D4 90E0              ldi R25,>_Amplitude_degree_tem_z4
 11D6 9983              std y+1,R25
 11D8 8883              std y+0,R24
 11DA 20E0              ldi R18,<_Amplitude_degree_tem_I2C4
 11DC 30E0              ldi R19,>_Amplitude_degree_tem_I2C4
 11DE 08E7              ldi R16,120
 11E0 25DE              xcall _i2c_read
 11E2                   .dbline 920
 11E2           ;                                i2c_read(ADD_5,Amplitude_degree_tem_I2C5,Amplitude_degree_tem_z5,8);
 11E2 88E0              ldi R24,8
 11E4 8A83              std y+2,R24
 11E6 80E0              ldi R24,<_Amplitude_degree_tem_z5
 11E8 90E0              ldi R25,>_Amplitude_degree_tem_z5
 11EA 9983              std y+1,R25
 11EC 8883              std y+0,R24
 11EE 20E0              ldi R18,<_Amplitude_degree_tem_I2C5
 11F0 30E0              ldi R19,>_Amplitude_degree_tem_I2C5
 11F2 00E8              ldi R16,128
 11F4 1BDE              xcall _i2c_read
 11F6                   .dbline 921
 11F6           ;                                i2c_read(ADD_6,Amplitude_degree_tem_I2C6,Amplitude_degree_tem_z6,8);
 11F6 88E0              ldi R24,8
 11F8 8A83              std y+2,R24
 11FA 80E0              ldi R24,<_Amplitude_degree_tem_z6
 11FC 90E0              ldi R25,>_Amplitude_degree_tem_z6
 11FE 9983              std y+1,R25
 1200 8883              std y+0,R24
 1202 20E0              ldi R18,<_Amplitude_degree_tem_I2C6
 1204 30E0              ldi R19,>_Amplitude_degree_tem_I2C6
 1206 08E8              ldi R16,136
 1208 11DE              xcall _i2c_read
 120A                   .dbline 922
 120A           ;                                six2one(Amplitude_degree_tem_z,Amplitude_degree_tem_z1,Amplitude_degree_tem_z2,Amplitude_degree_tem_z3,Amplitude_degree_tem_z4,Amplitude_degree_tem_z5,Amplitude_degree_tem_z6);  
 120A 80E0              ldi R24,<_Amplitude_degree_tem_z6
 120C 90E0              ldi R25,>_Amplitude_degree_tem_z6
 120E 9987              std y+9,R25
 1210 8887              std y+8,R24
 1212 80E0              ldi R24,<_Amplitude_degree_tem_z5
 1214 90E0              ldi R25,>_Amplitude_degree_tem_z5
 1216 9F83              std y+7,R25
 1218 8E83              std y+6,R24
 121A 80E0              ldi R24,<_Amplitude_degree_tem_z4
 121C 90E0              ldi R25,>_Amplitude_degree_tem_z4
 121E 9D83              std y+5,R25
 1220 8C83              std y+4,R24
 1222 80E0              ldi R24,<_Amplitude_degree_tem_z3
 1224 90E0              ldi R25,>_Amplitude_degree_tem_z3
 1226 9B83              std y+3,R25
 1228 8A83              std y+2,R24
 122A 80E0              ldi R24,<_Amplitude_degree_tem_z2
 122C 90E0              ldi R25,>_Amplitude_degree_tem_z2
 122E 9983              std y+1,R25
 1230 8883              std y+0,R24
 1232 20E0              ldi R18,<_Amplitude_degree_tem_z1
 1234 30E0              ldi R19,>_Amplitude_degree_tem_z1
 1236 00E0              ldi R16,<_Amplitude_degree_tem_z
 1238 10E0              ldi R17,>_Amplitude_degree_tem_z
 123A 07DD              xcall _six2one
 123C                   .dbline 923
 123C           ;                                  for(i=0;i<=47;i++)
 123C 4427              clr R20
 123E 5527              clr R21
 1240           L229:
 1240                   .dbline 924
 1240           ;                                  {
 1240                   .dbline 925
 1240           ;                                    Amplitude_degree_tem[i/3][i%3]=Amplitude_degree_tem_z[i];
 1240 23E0              ldi R18,3
 1242 30E0              ldi R19,0
 1244 8A01              movw R16,R20
 1246 0E940000          xcall div16s
 124A 83E0              ldi R24,3
 124C 90E0              ldi R25,0
 124E 9801              movw R18,R16
 1250 8C01              movw R16,R24
 1252 0E940000          xcall empy16s
 1256 80E0              ldi R24,<_Amplitude_degree_tem
 1258 90E0              ldi R25,>_Amplitude_degree_tem
 125A 1801              movw R2,R16
 125C 280E              add R2,R24
 125E 391E              adc R3,R25
 1260 23E0              ldi R18,3
 1262 30E0              ldi R19,0
 1264 8A01              movw R16,R20
 1266 0E940000          xcall mod16s
 126A F801              movw R30,R16
 126C E20D              add R30,R2
 126E F31D              adc R31,R3
 1270 80E0              ldi R24,<_Amplitude_degree_tem_z
 1272 90E0              ldi R25,>_Amplitude_degree_tem_z
 1274 DA01              movw R26,R20
 1276 A80F              add R26,R24
 1278 B91F              adc R27,R25
 127A 2C90              ld R2,x
 127C 2082              std z+0,R2
 127E                   .dbline 926
 127E           ;                                  }    
 127E           L230:
 127E                   .dbline 923
 127E 4F5F              subi R20,255  ; offset = 1
 1280 5F4F              sbci R21,255
 1282                   .dbline 923
 1282 8FE2              ldi R24,47
 1284 90E0              ldi R25,0
 1286 8417              cp R24,R20
 1288 9507              cpc R25,R21
 128A D4F6              brge L229
 128C           X81:
 128C                   .dbline 927
 128C           ;                                i2c_read(ADD_10,Dynamic_Offset_degree_origin_I2C1,Dynamic_Offset_degree_origin_z1,8);
 128C 88E0              ldi R24,8
 128E 8A83              std y+2,R24
 1290 80E0              ldi R24,<_Dynamic_Offset_degree_origin_z1
 1292 90E0              ldi R25,>_Dynamic_Offset_degree_origin_z1
 1294 9983              std y+1,R25
 1296 8883              std y+0,R24
 1298 20E0              ldi R18,<_Dynamic_Offset_degree_origin_I2C1
 129A 30E0              ldi R19,>_Dynamic_Offset_degree_origin_I2C1
 129C 00E9              ldi R16,144
 129E C6DD              xcall _i2c_read
 12A0                   .dbline 928
 12A0           ;                                i2c_read(ADD_20,Dynamic_Offset_degree_origin_I2C2,Dynamic_Offset_degree_origin_z2,8);
 12A0 88E0              ldi R24,8
 12A2 8A83              std y+2,R24
 12A4 80E0              ldi R24,<_Dynamic_Offset_degree_origin_z2
 12A6 90E0              ldi R25,>_Dynamic_Offset_degree_origin_z2
 12A8 9983              std y+1,R25
 12AA 8883              std y+0,R24
 12AC 20E0              ldi R18,<_Dynamic_Offset_degree_origin_I2C2
 12AE 30E0              ldi R19,>_Dynamic_Offset_degree_origin_I2C2
 12B0 08E9              ldi R16,152
 12B2 BCDD              xcall _i2c_read
 12B4                   .dbline 929
 12B4           ;                                i2c_read(ADD_30,Dynamic_Offset_degree_origin_I2C3,Dynamic_Offset_degree_origin_z3,8);
 12B4 88E0              ldi R24,8
 12B6 8A83              std y+2,R24
 12B8 80E0              ldi R24,<_Dynamic_Offset_degree_origin_z3
 12BA 90E0              ldi R25,>_Dynamic_Offset_degree_origin_z3
 12BC 9983              std y+1,R25
 12BE 8883              std y+0,R24
 12C0 20E0              ldi R18,<_Dynamic_Offset_degree_origin_I2C3
 12C2 30E0              ldi R19,>_Dynamic_Offset_degree_origin_I2C3
 12C4 00EA              ldi R16,160
 12C6 B2DD              xcall _i2c_read
 12C8                   .dbline 930
 12C8           ;                                three2one(Dynamic_Offset_degree_origin_z,Dynamic_Offset_degree_origin_z1,Dynamic_Offset_degree_origin_z2,Dynamic_Offset_degree_origin_z3);  
 12C8 80E0              ldi R24,<_Dynamic_Offset_degree_origin_z3
 12CA 90E0              ldi R25,>_Dynamic_Offset_degree_origin_z3
 12CC 9B83              std y+3,R25
 12CE 8A83              std y+2,R24
 12D0 80E0              ldi R24,<_Dynamic_Offset_degree_origin_z2
 12D2 90E0              ldi R25,>_Dynamic_Offset_degree_origin_z2
 12D4 9983              std y+1,R25
 12D6 8883              std y+0,R24
 12D8 20E0              ldi R18,<_Dynamic_Offset_degree_origin_z1
 12DA 30E0              ldi R19,>_Dynamic_Offset_degree_origin_z1
 12DC 00E0              ldi R16,<_Dynamic_Offset_degree_origin_z
 12DE 10E0              ldi R17,>_Dynamic_Offset_degree_origin_z
 12E0 AFDB              xcall _three2one
 12E2                   .dbline 931
 12E2           ;                                  for(i=0;i<=23;i++)
 12E2 4427              clr R20
 12E4 5527              clr R21
 12E6           L233:
 12E6                   .dbline 932
 12E6           ;                                  {
 12E6                   .dbline 933
 12E6           ;                            Dynamic_Offset_degree_origin[i/3][i%3]=Dynamic_Offset_degree_origin_z[i];
 12E6 23E0              ldi R18,3
 12E8 30E0              ldi R19,0
 12EA 8A01              movw R16,R20
 12EC 0E940000          xcall div16s
 12F0 83E0              ldi R24,3
 12F2 90E0              ldi R25,0
 12F4 9801              movw R18,R16
 12F6 8C01              movw R16,R24
 12F8 0E940000          xcall empy16s
 12FC 80E0              ldi R24,<_Dynamic_Offset_degree_origin
 12FE 90E0              ldi R25,>_Dynamic_Offset_degree_origin
 1300 1801              movw R2,R16
 1302 280E              add R2,R24
 1304 391E              adc R3,R25
 1306 23E0              ldi R18,3
 1308 30E0              ldi R19,0
 130A 8A01              movw R16,R20
 130C 0E940000          xcall mod16s
 1310 F801              movw R30,R16
 1312 E20D              add R30,R2
 1314 F31D              adc R31,R3
 1316 80E0              ldi R24,<_Dynamic_Offset_degree_origin_z
 1318 90E0              ldi R25,>_Dynamic_Offset_degree_origin_z
 131A DA01              movw R26,R20
 131C A80F              add R26,R24
 131E B91F              adc R27,R25
 1320 2C90              ld R2,x
 1322 2082              std z+0,R2
 1324                   .dbline 934
 1324           ;                                  }    
 1324           L234:
 1324                   .dbline 931
 1324 4F5F              subi R20,255  ; offset = 1
 1326 5F4F              sbci R21,255
 1328                   .dbline 931
 1328 87E1              ldi R24,23
 132A 90E0              ldi R25,0
 132C 8417              cp R24,R20
 132E 9507              cpc R25,R21
 1330 D4F6              brge L233
 1332           X82:
 1332                   .dbline 935
 1332           ;                               senddata(0xcc);
 1332 0CEC              ldi R16,204
 1334 0E94AB00          xcall _senddata
 1338                   .dbline 936
 1338           ;                        break;
 1338           L210:
 1338           L211:
 1338                   .dbline -2
 1338           L209:
 1338                   .dbline 0 ; func end
 1338 2A96              adiw R28,10
 133A 5991              ld R21,y+
 133C 4991              ld R20,y+
 133E 0895              ret
 1340                   .dbsym r i 20 I
 1340                   .dbend
                        .area vector(rom, abs)
                        .org 72
 0048 0C94A009          jmp _uart0_rx_isr
                        .area text(rom, con, rel)
 1340                   .dbfile G:\wsg\SchoolTrain\FishRobot\机器鱼\机器鱼培训资料\机器鱼培训资料\机器鱼鱼体波程序\fish_0_100115\11fish.c
 1340                   .dbfunc e uart0_rx_isr _uart0_rx_isr fV
                        .area  func_lit(rom, con, rel)
 0000           L279:
 0000 FD0A              .word `L264
 0002 000B              .word `L265
 0004 030B              .word `L266
 0006 060B              .word `L267
 0008 090B              .word `L268
 000A 0C0B              .word `L269
 000C 0F0B              .word `L270
 000E 270B              .word `L278
 0010 2A0B              .word `L261
 0012 240B              .word `L277
 0014 210B              .word `L276
 0016 1E0B              .word `L275
 0018 1B0B              .word `L274
 001A 180B              .word `L273
 001C 150B              .word `L272
 001E 120B              .word `L271
                        .area text(rom, con, rel)
                        .even
 1340           _uart0_rx_isr::
 1340 0A92              st -y,R0
 1342 1A92              st -y,R1
 1344 2A92              st -y,R2
 1346 3A92              st -y,R3
 1348 4A92              st -y,R4
 134A 5A92              st -y,R5
 134C 6A92              st -y,R6
 134E 7A92              st -y,R7
 1350 8A92              st -y,R8
 1352 9A92              st -y,R9
 1354 0A93              st -y,R16
 1356 1A93              st -y,R17
 1358 2A93              st -y,R18
 135A 3A93              st -y,R19
 135C 8A93              st -y,R24
 135E 9A93              st -y,R25
 1360 AA93              st -y,R26
 1362 BA93              st -y,R27
 1364 EA93              st -y,R30
 1366 FA93              st -y,R31
 1368 0FB6              IN R0,63
 136A 0A92              st -y,R0
 136C 0E940000          xcall push_xgset300C
 1370                   .dbline -1
 1370                   .dbline 944
 1370           ;         }
 1370           ; }
 1370           ; 
 1370           ; 
 1370           ; //***********************************串口中断*****************************
 1370           ; #pragma interrupt_handler uart0_rx_isr:19
 1370           ; void uart0_rx_isr(void) 
 1370           ; {
 1370                   .dbline 945
 1370           ;        redata=UDR0;
 1370 2CB0              in R2,0xc
 1372 20920200          sts _redata,R2
 1376                   .dbline 946
 1376           ;          if(1)//?//判断寄存器的值，是否存在
 1376                   .dbline 947
 1376           ;          {
 1376                   .dbline 948
 1376           ;                if(isSrlStart)//若已经发送开始位，判断地址码是否匹配
 1376 20900702          lds R2,_isSrlStart
 137A 2220              tst R2
 137C 09F4              brne X169
 137E 15C4              xjmp L240
 1380           X169:
 1380           X95:
 1380                   .dbline 949
 1380           ;                {
 1380                   .dbline 950
 1380           ;                  if(addr)//若地址码已经匹配，准备接收命令
 1380 20900902          lds R2,_addr
 1384 2220              tst R2
 1386 09F4              brne X170
 1388 01C4              xjmp L242
 138A           X170:
 138A           X96:
 138A                   .dbline 951
 138A           ;                  {
 138A                   .dbline 952
 138A           ;                          if(isInstruction==1|y_changing)//已经接受过命令了，那么判断是否是结束位
 138A 80911702          lds R24,_isInstruction
 138E 8130              cpi R24,1
 1390 19F4              brne L246
 1392           X97:
 1392 41E0              ldi R20,1
 1394 50E0              ldi R21,0
 1396 02C0              xjmp L247
 1398           L246:
 1398 4427              clr R20
 139A 5527              clr R21
 139C           L247:
 139C 20902402          lds R2,_y_changing
 13A0 3324              clr R3
 13A2 2A01              movw R4,R20
 13A4 4228              or R4,R2
 13A6 5328              or R5,R3
 13A8 4420              tst R4
 13AA 11F4              brne X98
 13AC 5520              tst R5
 13AE 91F0              breq L244
 13B0           X98:
 13B0                   .dbline 953
 13B0           ;                          {
 13B0                   .dbline 954
 13B0           ;                                  if(redata==0xfc)
 13B0 80910200          lds R24,_redata
 13B4 8C3F              cpi R24,252
 13B6 31F4              brne L248
 13B8           X99:
 13B8                   .dbline 955
 13B8           ;                                  { 
 13B8                   .dbline 956
 13B8           ;                                          e_change=1;//
 13B8 81E0              ldi R24,1
 13BA 80931402          sts _e_change,R24
 13BE                   .dbline 957
 13BE           ;                                          is_uart=1;//退出自动模式，进入手动控制模式
 13BE 80931902          sts _is_uart,R24
 13C2                   .dbline 958
 13C2           ;                                  }
 13C2 5AC4              xjmp L241
 13C4           L248:
 13C4                   .dbline 960
 13C4           ;                                  else//接收到的不是结束位，那么这条指令无效，重新接收下一次命令
 13C4           ;                                  {
 13C4                   .dbline 961
 13C4           ;                                     isSrlStart=0;
 13C4 2224              clr R2
 13C6 20920702          sts _isSrlStart,R2
 13CA                   .dbline 962
 13CA           ;                                         addr=0;
 13CA 20920902          sts _addr,R2
 13CE                   .dbline 963
 13CE           ;                                         isInstruction=0;
 13CE 20921702          sts _isInstruction,R2
 13D2                   .dbline 964
 13D2           ;                                  }
 13D2                   .dbline 965
 13D2           ;                          }
 13D2 52C4              xjmp L241
 13D4           L244:
 13D4                   .dbline 967
 13D4           ;                          else//没有接受过命令，则接受命令
 13D4           ;                          {
 13D4                   .dbline 968
 13D4           ;                                  switch(redata&0xf0)
 13D4 40910200          lds R20,_redata
 13D8 5527              clr R21
 13DA 407F              andi R20,240
 13DC 5070              andi R21,0
 13DE 4036              cpi R20,96
 13E0 E0E0              ldi R30,0
 13E2 5E07              cpc R21,R30
 13E4 09F4              brne X171
 13E6 93C1              xjmp L291
 13E8           X171:
 13E8           X100:
 13E8 80E6              ldi R24,96
 13EA 90E0              ldi R25,0
 13EC 8417              cp R24,R20
 13EE 9507              cpc R25,R21
 13F0 0CF4              brge X172
 13F2 2FC0              xjmp L408
 13F4           X172:
 13F4           X101:
 13F4           L407:
 13F4 4032              cpi R20,32
 13F6 E0E0              ldi R30,0
 13F8 5E07              cpc R21,R30
 13FA 09F4              brne X173
 13FC 9CC0              xjmp L257
 13FE           X173:
 13FE           X102:
 13FE 80E2              ldi R24,32
 1400 90E0              ldi R25,0
 1402 8417              cp R24,R20
 1404 9507              cpc R25,R21
 1406 7CF0              brlt L410
 1408           X103:
 1408           L409:
 1408 4030              cpi R20,0
 140A 4507              cpc R20,R21
 140C 09F4              brne X174
 140E 75C0              xjmp L255
 1410           X174:
 1410           X104:
 1410 4030              cpi R20,0
 1412 E0E0              ldi R30,0
 1414 5E07              cpc R21,R30
 1416 0CF4              brge X175
 1418 B3C3              xjmp L250
 141A           X175:
 141A           X105:
 141A           L411:
 141A 4031              cpi R20,16
 141C E0E0              ldi R30,0
 141E 5E07              cpc R21,R30
 1420 09F4              brne X176
 1422 7AC0              xjmp L256
 1424           X176:
 1424           X106:
 1424 ADC3              xjmp L250
 1426           L410:
 1426 4034              cpi R20,64
 1428 E0E0              ldi R30,0
 142A 5E07              cpc R21,R30
 142C 09F4              brne X177
 142E 95C0              xjmp L258
 1430           X177:
 1430           X107:
 1430 80E4              ldi R24,64
 1432 90E0              ldi R25,0
 1434 8417              cp R24,R20
 1436 9507              cpc R25,R21
 1438 34F0              brlt L413
 143A           X108:
 143A           L412:
 143A 4033              cpi R20,48
 143C E0E0              ldi R30,0
 143E 5E07              cpc R21,R30
 1440 09F4              brne X178
 1442 AFC0              xjmp L260
 1444           X178:
 1444           X109:
 1444 9DC3              xjmp L250
 1446           L413:
 1446 4035              cpi R20,80
 1448 E0E0              ldi R30,0
 144A 5E07              cpc R21,R30
 144C 09F4              brne X179
 144E 0AC1              xjmp L280
 1450           X179:
 1450           X110:
 1450 97C3              xjmp L250
 1452           L408:
 1452 403C              cpi R20,192
 1454 E0E0              ldi R30,0
 1456 5E07              cpc R21,R30
 1458 09F4              brne X180
 145A ABC2              xjmp L339
 145C           X180:
 145C           X111:
 145C 80EC              ldi R24,192
 145E 90E0              ldi R25,0
 1460 8417              cp R24,R20
 1462 9507              cpc R25,R21
 1464 84F0              brlt L415
 1466           X112:
 1466           L414:
 1466 4037              cpi R20,112
 1468 E0E0              ldi R30,0
 146A 5E07              cpc R21,R30
 146C 09F4              brne X181
 146E 84C0              xjmp L259
 1470           X181:
 1470           X113:
 1470 4037              cpi R20,112
 1472 E0E0              ldi R30,0
 1474 5E07              cpc R21,R30
 1476 0CF4              brge X182
 1478 83C3              xjmp L250
 147A           X182:
 147A           X114:
 147A           L416:
 147A 403B              cpi R20,176
 147C E0E0              ldi R30,0
 147E 5E07              cpc R21,R30
 1480 09F4              brne X183
 1482 51C1              xjmp L294
 1484           X183:
 1484           X115:
 1484 7DC3              xjmp L250
 1486           L415:
 1486 403E              cpi R20,224
 1488 E0E0              ldi R30,0
 148A 5E07              cpc R21,R30
 148C 19F1              breq L254
 148E           X116:
 148E 80EE              ldi R24,224
 1490 90E0              ldi R25,0
 1492 8417              cp R24,R20
 1494 9507              cpc R25,R21
 1496 2CF0              brlt L418
 1498           X117:
 1498           L417:
 1498 403D              cpi R20,208
 149A E0E0              ldi R30,0
 149C 5E07              cpc R21,R30
 149E 39F0              breq L253
 14A0           X118:
 14A0 6FC3              xjmp L250
 14A2           L418:
 14A2 403F              cpi R20,240
 14A4 E0E0              ldi R30,0
 14A6 5E07              cpc R21,R30
 14A8 09F4              brne X184
 14AA 5FC3              xjmp L404
 14AC           X184:
 14AC           X119:
 14AC 69C3              xjmp L250
 14AE           L253:
 14AE                   .dbline 971
 14AE           ;                                  {
 14AE           ;                                  case 0xD0://速度
 14AE           ;                                          redata_fan=redata;
 14AE 20900200          lds R2,_redata
 14B2 20920200          sts _redata_fan,R2
 14B6                   .dbline 972
 14B6           ;                                          s_change=1;
 14B6 81E0              ldi R24,1
 14B8 80930B02          sts _s_change,R24
 14BC                   .dbline 973
 14BC           ;                                          m_change=0;
 14BC 2224              clr R2
 14BE 20921A02          sts _m_change,R2
 14C2                   .dbline 974
 14C2           ;                                          y_change=0;
 14C2 20922302          sts _y_change,R2
 14C6                   .dbline 975
 14C6           ;                                          isInstruction=1;
 14C6 80931702          sts _isInstruction,R24
 14CA                   .dbline 976
 14CA           ;                                          redata_tem=redata;
 14CA 20900200          lds R2,_redata
 14CE 20920100          sts _redata_tem,R2
 14D2                   .dbline 977
 14D2           ;                                          break;
 14D2 D2C3              xjmp L241
 14D4           L254:
 14D4                   .dbline 979
 14D4           ;                                  case 0xE0://方向
 14D4           ;                                   redata_fan=redata;
 14D4 20900200          lds R2,_redata
 14D8 20920200          sts _redata_fan,R2
 14DC                   .dbline 980
 14DC           ;                                               d_change=1;
 14DC 81E0              ldi R24,1
 14DE 80930C02          sts _d_change,R24
 14E2                   .dbline 983
 14E2           ;                                               //d_change_t=1;
 14E2           ;                                               //d_change_t_v=1;
 14E2           ;                                               m_change=0;
 14E2 2224              clr R2
 14E4 20921A02          sts _m_change,R2
 14E8                   .dbline 984
 14E8           ;                                               y_change=0;
 14E8 20922302          sts _y_change,R2
 14EC                   .dbline 985
 14EC           ;                                               isInstruction=1;
 14EC 80931702          sts _isInstruction,R24
 14F0                   .dbline 986
 14F0           ;                                               redata_tem=redata;
 14F0 20900200          lds R2,_redata
 14F4 20920100          sts _redata_tem,R2
 14F8                   .dbline 987
 14F8           ;                                               break;
 14F8 BFC3              xjmp L241
 14FA           L255:
 14FA                   .dbline 989
 14FA           ;                                  case 0x00://调直
 14FA           ;                                   t_change=1;
 14FA 81E0              ldi R24,1
 14FC 80930F02          sts _t_change,R24
 1500                   .dbline 990
 1500           ;                                               m_change=0;
 1500 2224              clr R2
 1502 20921A02          sts _m_change,R2
 1506                   .dbline 991
 1506           ;                                               y_change=0;
 1506 20922302          sts _y_change,R2
 150A                   .dbline 992
 150A           ;                                               isInstruction=1;
 150A 80931702          sts _isInstruction,R24
 150E                   .dbline 993
 150E           ;                                               redata_tem=redata;
 150E 20900200          lds R2,_redata
 1512 20920100          sts _redata_tem,R2
 1516                   .dbline 994
 1516           ;                                               break;
 1516 B0C3              xjmp L241
 1518           L256:
 1518                   .dbline 996
 1518           ;                                  case 0x10://调直是否保存
 1518           ;                                   ts_change=1;
 1518 81E0              ldi R24,1
 151A 80931002          sts _ts_change,R24
 151E                   .dbline 997
 151E           ;                                               m_change=0;
 151E 2224              clr R2
 1520 20921A02          sts _m_change,R2
 1524                   .dbline 998
 1524           ;                                               y_change=0;
 1524 20922302          sts _y_change,R2
 1528                   .dbline 999
 1528           ;                                               isInstruction=1;
 1528 80931702          sts _isInstruction,R24
 152C                   .dbline 1000
 152C           ;                                               redata_tem=redata;
 152C 20900200          lds R2,_redata
 1530 20920100          sts _redata_tem,R2
 1534                   .dbline 1001
 1534           ;                                               break;
 1534 A1C3              xjmp L241
 1536           L257:
 1536                   .dbline 1003
 1536           ;                                  case 0x20://更改鱼id
 1536           ;                                   id_change++;
 1536 80911302          lds R24,_id_change
 153A 8F5F              subi R24,255    ; addi 1
 153C 80931302          sts _id_change,R24
 1540                   .dbline 1004
 1540           ;                                               m_change=0;
 1540 2224              clr R2
 1542 20921A02          sts _m_change,R2
 1546                   .dbline 1005
 1546           ;                                               y_change=0;
 1546 20922302          sts _y_change,R2
 154A                   .dbline 1006
 154A           ;                                               isInstruction=1;
 154A 81E0              ldi R24,1
 154C 80931702          sts _isInstruction,R24
 1550                   .dbline 1007
 1550           ;                                               redata_tem=redata;
 1550 20900200          lds R2,_redata
 1554 20920100          sts _redata_tem,R2
 1558                   .dbline 1008
 1558           ;                                               break;
 1558 8FC3              xjmp L241
 155A           L258:
 155A                   .dbline 1010
 155A           ;                                  case 0x40://更改频率
 155A           ;                                   f_change=1;
 155A 81E0              ldi R24,1
 155C 80931202          sts _f_change,R24
 1560                   .dbline 1011
 1560           ;                                               m_change=0;
 1560 2224              clr R2
 1562 20921A02          sts _m_change,R2
 1566                   .dbline 1012
 1566           ;                                               y_change=0;
 1566 20922302          sts _y_change,R2
 156A                   .dbline 1013
 156A           ;                                               isInstruction=1;
 156A 80931702          sts _isInstruction,R24
 156E                   .dbline 1014
 156E           ;                                               redata_tem=redata;
 156E 20900200          lds R2,_redata
 1572 20920100          sts _redata_tem,R2
 1576                   .dbline 1016
 1576           ;                                               //PORTD=0xf4;                                           
 1576           ;                                               break;
 1576 80C3              xjmp L241
 1578           L259:
 1578                   .dbline 1018
 1578           ;                                  case 0x70:///更改模态
 1578           ;                                   m_change=1;
 1578 81E0              ldi R24,1
 157A 80931A02          sts _m_change,R24
 157E                   .dbline 1019
 157E           ;                                               y_change=0;
 157E 2224              clr R2
 1580 20922302          sts _y_change,R2
 1584                   .dbline 1020
 1584           ;                                               m_cishu=0;
 1584 20921B02          sts _m_cishu,R2
 1588                   .dbline 1021
 1588           ;                                               mm_cishu=0;
 1588 20921C02          sts _mm_cishu,R2
 158C                   .dbline 1022
 158C           ;                                               mmm_cishu=m_time-1;
 158C 8FE0              ldi R24,15
 158E 80931D02          sts _mmm_cishu,R24
 1592                   .dbline 1023
 1592           ;                                               isInstruction=1;
 1592 81E0              ldi R24,1
 1594 80931702          sts _isInstruction,R24
 1598                   .dbline 1024
 1598           ;                                               m_tem=redata;
 1598 20900200          lds R2,_redata
 159C 20922D02          sts _m_tem,R2
 15A0                   .dbline 1025
 15A0           ;                                               break;
 15A0 6BC3              xjmp L241
 15A2           L260:
 15A2                   .dbline 1027
 15A2           ;                                  case 0x30://原始的转弯模式
 15A2           ;                                   y_change=1;
 15A2 81E0              ldi R24,1
 15A4 80932302          sts _y_change,R24
 15A8                   .dbline 1028
 15A8           ;                         y_changing=1;
 15A8 80932402          sts _y_changing,R24
 15AC                   .dbline 1029
 15AC           ;                                               m_change=0;
 15AC 2224              clr R2
 15AE 20921A02          sts _m_change,R2
 15B2                   .dbline 1030
 15B2           ;                                               y_cishu=0;
 15B2 20922602          sts _y_cishu,R2
 15B6                   .dbline 1031
 15B6           ;                                               yy_cishu=0;
 15B6 20922702          sts _yy_cishu,R2
 15BA                   .dbline 1032
 15BA           ;                                               yyy_cishu=y_time-1;
 15BA 80932802          sts _yyy_cishu,R24
 15BE                   .dbline 1033
 15BE           ;                                               cishu_y=0;
 15BE 20922902          sts _cishu_y,R2
 15C2                   .dbline 1034
 15C2           ;                                               y_tem=redata;
 15C2 20900200          lds R2,_redata
 15C6 20922A02          sts _y_tem,R2
 15CA                   .dbline 1035
 15CA           ;                                               switch(y_tem)//转弯档不同，保持的时间不同，弯越大，时间越长。
 15CA 422D              mov R20,R2
 15CC 5527              clr R21
 15CE 4030              cpi R20,0
 15D0 E0E0              ldi R30,0
 15D2 5E07              cpc R21,R30
 15D4 0CF4              brge X185
 15D6 3EC0              xjmp L261
 15D8           X185:
 15D8           X120:
 15D8 8FE0              ldi R24,15
 15DA 90E0              ldi R25,0
 15DC 8417              cp R24,R20
 15DE 9507              cpc R25,R21
 15E0 0CF4              brge X186
 15E2 38C0              xjmp L261
 15E4           X186:
 15E4           X121:
 15E4 80E0              ldi R24,<L279
 15E6 90E0              ldi R25,>L279
 15E8 FA01              movw R30,R20
 15EA EE0F              lsl R30
 15EC FF1F              rol R31
 15EE E80F              add R30,R24
 15F0 F91F              adc R31,R25
 15F2 2790              elpm R2,Z+
 15F4 3690              elpm R3,Z
 15F6 F101              movw R30,R2
 15F8 0994               ijmp
 15FA           X122:
 15FA                   .dbfile G:\wsg\SchoolTrain\FishRobot\机器鱼\机器鱼培训资料\机器鱼培训资料\机器鱼鱼体波程序\fish_0_100115\11fish.c
 15FA                   .dbline 1036
 15FA           ;                                               {
 15FA           L264:
 15FA                   .dbline 1038
 15FA           ;                                               case 0:
 15FA           ;                                                       yy_time=0xff;
 15FA 8FEF              ldi R24,255
 15FC 80932502          sts _yy_time,R24
 1600           L265:
 1600                   .dbline 1040
 1600           ;                                               case 1:
 1600           ;                                                       yy_time=0xf0;
 1600 80EF              ldi R24,240
 1602 80932502          sts _yy_time,R24
 1606           L266:
 1606                   .dbline 1042
 1606           ;                                               case 2:
 1606           ;                                                       yy_time=0xe0;
 1606 80EE              ldi R24,224
 1608 80932502          sts _yy_time,R24
 160C           L267:
 160C                   .dbline 1044
 160C           ;                                               case 3:
 160C           ;                                                       yy_time=0xd0;
 160C 80ED              ldi R24,208
 160E 80932502          sts _yy_time,R24
 1612           L268:
 1612                   .dbline 1046
 1612           ;                                               case 4:
 1612           ;                                                       yy_time=0xc0;
 1612 80EC              ldi R24,192
 1614 80932502          sts _yy_time,R24
 1618           L269:
 1618                   .dbline 1048
 1618           ;                                               case 5:
 1618           ;                                                       yy_time=0xb0;
 1618 80EB              ldi R24,176
 161A 80932502          sts _yy_time,R24
 161E           L270:
 161E                   .dbline 1050
 161E           ;                                               case 6:
 161E           ;                                                       yy_time=0xa0;
 161E 80EA              ldi R24,160
 1620 80932502          sts _yy_time,R24
 1624           L271:
 1624                   .dbline 1052
 1624           ;                                               case 15:
 1624           ;                                                       yy_time=0xff;
 1624 8FEF              ldi R24,255
 1626 80932502          sts _yy_time,R24
 162A           L272:
 162A                   .dbline 1054
 162A           ;                                               case 14:
 162A           ;                                                       yy_time=0xff;
 162A 8FEF              ldi R24,255
 162C 80932502          sts _yy_time,R24
 1630           L273:
 1630                   .dbline 1056
 1630           ;                                               case 13:
 1630           ;                                                       yy_time=0xf0;
 1630 80EF              ldi R24,240
 1632 80932502          sts _yy_time,R24
 1636           L274:
 1636                   .dbline 1058
 1636           ;                                               case 12:
 1636           ;                                                       yy_time=0xe0;
 1636 80EE              ldi R24,224
 1638 80932502          sts _yy_time,R24
 163C           L275:
 163C                   .dbline 1060
 163C           ;                                               case 11:
 163C           ;                                                       yy_time=0xd0;
 163C 80ED              ldi R24,208
 163E 80932502          sts _yy_time,R24
 1642           L276:
 1642                   .dbline 1062
 1642           ;                                               case 10:
 1642           ;                                                       yy_time=0xc0;
 1642 80EC              ldi R24,192
 1644 80932502          sts _yy_time,R24
 1648           L277:
 1648                   .dbline 1064
 1648           ;                                               case 9:
 1648           ;                                                       yy_time=0xb0;
 1648 80EB              ldi R24,176
 164A 80932502          sts _yy_time,R24
 164E           L278:
 164E                   .dbline 1066
 164E           ;                                               case 7:
 164E           ;                                                       y_change=0;
 164E 2224              clr R2
 1650 20922302          sts _y_change,R2
 1654                   .dbline 1067
 1654           ;                                               }
 1654           L261:
 1654                   .dbline 1068
 1654           ;                                               y_speed=Speed;                                  
 1654 20900000          lds R2,_Speed
 1658 20922B02          sts _y_speed,R2
 165C                   .dbline 1069
 165C           ;                                               isInstruction=1;
 165C 81E0              ldi R24,1
 165E 80931702          sts _isInstruction,R24
 1662                   .dbline 1070
 1662           ;                                               break;
 1662 0AC3              xjmp L241
 1664           L280:
 1664                   .dbline 1081
 1664           ; /*                           case 0xb0://更改幅度
 1664           ;                                   a_change=1;
 1664           ;                                               m_change=0;
 1664           ;                                               y_change=0;
 1664           ;                                               redata_tem=redata;
 1664           ;                                               break;
 1664           ; */
 1664           ;       /////////----测试指令--BEGIN----//////////////
 1664           ; 
 1664           ;                              case 0x50:
 1664           ;                                               isInstruction=1;
 1664 81E0              ldi R24,1
 1666 80931702          sts _isInstruction,R24
 166A                   .dbline 1082
 166A           ;                                               if(redata==0x55)//返回速度幅度值
 166A 80910200          lds R24,_redata
 166E 8535              cpi R24,85
 1670 09F0              breq X187
 1672 02C3              xjmp L241
 1674           X187:
 1674           X123:
 1674                   .dbline 1083
 1674           ;                                               {
 1674                   .dbline 1084
 1674           ;                                                senddata(0x11);//起始标志位
 1674 01E1              ldi R16,17
 1676 0E94AB00          xcall _senddata
 167A                   .dbline 1085
 167A           ;                                                senddata(FISHID[0]);//鱼的id号， 
 167A 00910A00          lds R16,_FISHID
 167E 0E94AB00          xcall _senddata
 1682                   .dbline 1086
 1682           ;                                                senddata(freqs[0]+1);//频率档，1-4
 1682 00910F00          lds R16,_freqs
 1686 0F5F              subi R16,255    ; addi 1
 1688 0E94AB00          xcall _senddata
 168C                   .dbline 1087
 168C           ;                                                senddata(Static_Offset_degree[0]);//第一关节调直数据
 168C 00911400          lds R16,_Static_Offset_degree
 1690 0E94AB00          xcall _senddata
 1694                   .dbline 1088
 1694           ;                                                senddata(Static_Offset_degree[1]);//第二关节调直数据
 1694 00911500          lds R16,_Static_Offset_degree+1
 1698 0E94AB00          xcall _senddata
 169C                   .dbline 1089
 169C           ;                                                senddata(Static_Offset_degree[2]);//第三关节调直数据
 169C 00911600          lds R16,_Static_Offset_degree+2
 16A0 0E94AB00          xcall _senddata
 16A4                   .dbline 1090
 16A4           ;                                                senddata(s_tem);//速度档，对应速度、幅度
 16A4 00912C02          lds R16,_s_tem
 16A8 0E94AB00          xcall _senddata
 16AC                   .dbline 1091
 16AC           ;                                                senddata(Speed);//速度值
 16AC 00910000          lds R16,_Speed
 16B0 0E94AB00          xcall _senddata
 16B4                   .dbline 1092
 16B4           ;                                                senddata(Amplitude_degree[0]);//第一关节摆幅
 16B4 0091EE02          lds R16,_Amplitude_degree
 16B8 0E94AB00          xcall _senddata
 16BC                   .dbline 1093
 16BC           ;                                                senddata(Amplitude_degree[1]);//第二关节摆幅
 16BC 0091EF02          lds R16,_Amplitude_degree+1
 16C0 0E94AB00          xcall _senddata
 16C4                   .dbline 1094
 16C4           ;                                                senddata(Amplitude_degree[2]);//第三关节摆幅
 16C4 0091F002          lds R16,_Amplitude_degree+2
 16C8 0E94AB00          xcall _senddata
 16CC                   .dbline 1095
 16CC           ;                                                senddata(d_tem);//方向档，对应转弯偏移角度
 16CC 00912E02          lds R16,_d_tem
 16D0 0E94AB00          xcall _senddata
 16D4                   .dbline 1096
 16D4           ;                                                senddata(flag);//左转还是右转
 16D4 00913002          lds R16,_flag
 16D8 0E94AB00          xcall _senddata
 16DC                   .dbline 1097
 16DC           ;                                                senddata(Dynamic_Offset_degree_char[0]);//第一关节转弯偏移角度
 16DC 0091D002          lds R16,_Dynamic_Offset_degree_char
 16E0 0E94AB00          xcall _senddata
 16E4                   .dbline 1098
 16E4           ;                                                senddata(Dynamic_Offset_degree_char[1]);//第二关节转弯偏移角度
 16E4 0091D102          lds R16,_Dynamic_Offset_degree_char+1
 16E8 0E94AB00          xcall _senddata
 16EC                   .dbline 1099
 16EC           ;                                                senddata(Dynamic_Offset_degree_char[2]);//第三关节转弯偏移角度
 16EC 0091D202          lds R16,_Dynamic_Offset_degree_char+2
 16F0 0E94AB00          xcall _senddata
 16F4                   .dbline 1100
 16F4           ;                                                senddata(Neighbouring_Offset_degree[0]);//0
 16F4 0091EB02          lds R16,_Neighbouring_Offset_degree
 16F8 0E94AB00          xcall _senddata
 16FC                   .dbline 1101
 16FC           ;                                                senddata(Neighbouring_Offset_degree[1]);//第二关节滞后角
 16FC 0091EC02          lds R16,_Neighbouring_Offset_degree+1
 1700 0E94AB00          xcall _senddata
 1704                   .dbline 1102
 1704           ;                                                senddata(Neighbouring_Offset_degree[2]);//第三关节滞后角
 1704 0091ED02          lds R16,_Neighbouring_Offset_degree+2
 1708 0E94AB00          xcall _senddata
 170C                   .dbline 1103
 170C           ;                                               }//if(redata==0x55)     
 170C                   .dbline 1104
 170C           ;                                               break;
 170C B5C2              xjmp L241
 170E           L291:
 170E                   .dbline 1106
 170E           ;                                  case 0x60:
 170E           ;                                               isInstruction=1;
 170E 81E0              ldi R24,1
 1710 80931702          sts _isInstruction,R24
 1714                   .dbline 1107
 1714           ;                                   if(redata==0x66)//将调整的参数保存到I2C
 1714 80910200          lds R24,_redata
 1718 8636              cpi R24,102
 171A 09F0              breq X188
 171C ADC2              xjmp L241
 171E           X188:
 171E           X124:
 171E                   .dbline 1108
 171E           ;                                               {
 171E                   .dbline 1109
 171E           ;                                                i2c_canshu=1;
 171E 81E0              ldi R24,1
 1720 80933102          sts _i2c_canshu,R24
 1724                   .dbline 1110
 1724           ;                                               }//if(redata==0x66)     
 1724                   .dbline 1111
 1724           ;                                               break;
 1724 A9C2              xjmp L241
 1726           L294:
 1726                   .dbline 1114
 1726           ;                                  
 1726           ;                                  case 0xb0:
 1726           ;                                               isInstruction=1;
 1726 81E0              ldi R24,1
 1728 80931702          sts _isInstruction,R24
 172C                   .dbline 1115
 172C           ;                                   if(redata==0xb1)//改speed
 172C 80910200          lds R24,_redata
 1730 813B              cpi R24,177
 1732 79F4              brne L295
 1734           X125:
 1734                   .dbline 1116
 1734           ;                                   {
 1734                   .dbline 1117
 1734           ;                                   Speed--;
 1734 80910000          lds R24,_Speed
 1738 8150              subi R24,1
 173A 80930000          sts _Speed,R24
 173E                   .dbline 1118
 173E           ;                                               Speed_tem_z[s_tem]=Speed;
 173E 80E0              ldi R24,<_Speed_tem_z
 1740 90E0              ldi R25,>_Speed_tem_z
 1742 E0912C02          lds R30,_s_tem
 1746 FF27              clr R31
 1748 E80F              add R30,R24
 174A F91F              adc R31,R25
 174C 20900000          lds R2,_Speed
 1750 2082              std z+0,R2
 1752                   .dbline 1119
 1752           ;                                               }//if(redata==0xb1)
 1752           L295:
 1752                   .dbline 1121
 1752           ;                                               
 1752           ;                                               if(redata==0xb2)
 1752 80910200          lds R24,_redata
 1756 823B              cpi R24,178
 1758 79F4              brne L297
 175A           X126:
 175A                   .dbline 1122
 175A           ;                                               {
 175A                   .dbline 1123
 175A           ;                                               Speed++;
 175A 80910000          lds R24,_Speed
 175E 8F5F              subi R24,255    ; addi 1
 1760 80930000          sts _Speed,R24
 1764                   .dbline 1124
 1764           ;                                           Speed_tem_z[s_tem]=Speed;
 1764 80E0              ldi R24,<_Speed_tem_z
 1766 90E0              ldi R25,>_Speed_tem_z
 1768 E0912C02          lds R30,_s_tem
 176C FF27              clr R31
 176E E80F              add R30,R24
 1770 F91F              adc R31,R25
 1772 20900000          lds R2,_Speed
 1776 2082              std z+0,R2
 1778                   .dbline 1125
 1778           ;                                               }//if(redata==0xb2)
 1778           L297:
 1778                   .dbline 1127
 1778           ;                                               
 1778           ;                                               if(redata==0xb3)//第一关节偏移角，减1
 1778 80910200          lds R24,_redata
 177C 833B              cpi R24,179
 177E 61F5              brne L299
 1780           X127:
 1780                   .dbline 1128
 1780           ;                                               {
 1780                   .dbline 1129
 1780           ;                                               dd_tem=change_dd(d_tem);
 1780 00912E02          lds R16,_d_tem
 1784 0CDB              xcall _change_dd
 1786 00932F02          sts _dd_tem,R16
 178A                   .dbline 1130
 178A           ;                                               flag=change_flag(d_tem);
 178A 00912E02          lds R16,_d_tem
 178E 1EDB              xcall _change_flag
 1790 00933002          sts _flag,R16
 1794                   .dbline 1131
 1794           ;                                                if(Dynamic_Offset_degree_char[0]==0)
 1794 2090D002          lds R2,_Dynamic_Offset_degree_char
 1798 2220              tst R2
 179A 09F4              brne L301
 179C           X128:
 179C                   .dbline 1132
 179C           ;                                                {
 179C                   .dbline 1133
 179C           ;                                                }
 179C 05C0              xjmp L302
 179E           L301:
 179E                   .dbline 1135
 179E           ;                                                else
 179E           ;                                                {
 179E                   .dbline 1136
 179E           ;                                                Dynamic_Offset_degree_char[0]--;
 179E 8091D002          lds R24,_Dynamic_Offset_degree_char
 17A2 8150              subi R24,1
 17A4 8093D002          sts _Dynamic_Offset_degree_char,R24
 17A8                   .dbline 1137
 17A8           ;                                                }
 17A8           L302:
 17A8                   .dbline 1138
 17A8           ;                                               Dynamic_Offset_degree[0]=char2int(Dynamic_Offset_degree_char[0],flag);
 17A8 20913002          lds R18,_flag
 17AC 0091D002          lds R16,_Dynamic_Offset_degree_char
 17B0 66D8              xcall _char2int
 17B2 5801              movw R10,R16
 17B4 B092CB02          sts _Dynamic_Offset_degree+1,R11
 17B8 A092CA02          sts _Dynamic_Offset_degree,R10
 17BC                   .dbline 1139
 17BC           ;                                               init_dynamic_offset();                    
 17BC 0E949A02          xcall _init_dynamic_offset
 17C0                   .dbline 1140
 17C0           ;                                               Dynamic_Offset_degree_origin[dd_tem][0]=Dynamic_Offset_degree_char[0];
 17C0 10912F02          lds R17,_dd_tem
 17C4 03E0              ldi R16,3
 17C6 0103              mulsu R16,R17
 17C8 80E0              ldi R24,<_Dynamic_Offset_degree_origin
 17CA 90E0              ldi R25,>_Dynamic_Offset_degree_origin
 17CC F001              movw R30,R0
 17CE E80F              add R30,R24
 17D0 F91F              adc R31,R25
 17D2 2090D002          lds R2,_Dynamic_Offset_degree_char
 17D6 2082              std z+0,R2
 17D8                   .dbline 1141
 17D8           ;                                           }//if(redata==0xb3)
 17D8           L299:
 17D8                   .dbline 1143
 17D8           ;                       
 17D8           ;                                               if(redata==0xb4)//第一关节偏移角，加1
 17D8 80910200          lds R24,_redata
 17DC 843B              cpi R24,180
 17DE 39F5              brne L303
 17E0           X129:
 17E0                   .dbline 1144
 17E0           ;                                               {
 17E0                   .dbline 1145
 17E0           ;                                                dd_tem=change_dd(d_tem);
 17E0 00912E02          lds R16,_d_tem
 17E4 DCDA              xcall _change_dd
 17E6 A02E              mov R10,R16
 17E8 A0922F02          sts _dd_tem,R10
 17EC                   .dbline 1146
 17EC           ;                                                flag=change_flag(d_tem);
 17EC 00912E02          lds R16,_d_tem
 17F0 EDDA              xcall _change_flag
 17F2 A02E              mov R10,R16
 17F4 A0923002          sts _flag,R10
 17F8                   .dbline 1147
 17F8           ;                                                Dynamic_Offset_degree_char[0]++;
 17F8 8091D002          lds R24,_Dynamic_Offset_degree_char
 17FC 8F5F              subi R24,255    ; addi 1
 17FE 8093D002          sts _Dynamic_Offset_degree_char,R24
 1802                   .dbline 1148
 1802           ;                                                Dynamic_Offset_degree[0]=char2int(Dynamic_Offset_degree_char[0],flag);
 1802 2A2D              mov R18,R10
 1804 082F              mov R16,R24
 1806 3BD8              xcall _char2int
 1808 5801              movw R10,R16
 180A B092CB02          sts _Dynamic_Offset_degree+1,R11
 180E A092CA02          sts _Dynamic_Offset_degree,R10
 1812                   .dbline 1149
 1812           ;                                                init_dynamic_offset();                   
 1812 0E949A02          xcall _init_dynamic_offset
 1816                   .dbline 1150
 1816           ;                                                Dynamic_Offset_degree_origin[dd_tem][0]=Dynamic_Offset_degree_char[0];
 1816 10912F02          lds R17,_dd_tem
 181A 03E0              ldi R16,3
 181C 0103              mulsu R16,R17
 181E 80E0              ldi R24,<_Dynamic_Offset_degree_origin
 1820 90E0              ldi R25,>_Dynamic_Offset_degree_origin
 1822 F001              movw R30,R0
 1824 E80F              add R30,R24
 1826 F91F              adc R31,R25
 1828 2090D002          lds R2,_Dynamic_Offset_degree_char
 182C 2082              std z+0,R2
 182E                   .dbline 1151
 182E           ;                                               }//if(redata==0xb4)
 182E           L303:
 182E                   .dbline 1153
 182E           ;                       
 182E           ;                                               if(redata==0xb5)//第二关节偏移角，减1
 182E 80910200          lds R24,_redata
 1832 853B              cpi R24,181
 1834 71F5              brne L305
 1836           X130:
 1836                   .dbline 1154
 1836           ;                                               {
 1836                   .dbline 1155
 1836           ;                                                dd_tem=change_dd(d_tem);
 1836 00912E02          lds R16,_d_tem
 183A B1DA              xcall _change_dd
 183C A02E              mov R10,R16
 183E A0922F02          sts _dd_tem,R10
 1842                   .dbline 1156
 1842           ;                                                flag=change_flag(d_tem);
 1842 00912E02          lds R16,_d_tem
 1846 C2DA              xcall _change_flag
 1848 A02E              mov R10,R16
 184A A0923002          sts _flag,R10
 184E                   .dbline 1157
 184E           ;                                                if(Dynamic_Offset_degree_char[1]==0)
 184E 2090D102          lds R2,_Dynamic_Offset_degree_char+1
 1852 2220              tst R2
 1854 09F4              brne L307
 1856           X131:
 1856                   .dbline 1158
 1856           ;                                                {
 1856                   .dbline 1159
 1856           ;                                                }
 1856 05C0              xjmp L308
 1858           L307:
 1858                   .dbline 1161
 1858           ;                                                else
 1858           ;                                                {
 1858                   .dbline 1162
 1858           ;                                                Dynamic_Offset_degree_char[1]--;
 1858 8091D102          lds R24,_Dynamic_Offset_degree_char+1
 185C 8150              subi R24,1
 185E 8093D102          sts _Dynamic_Offset_degree_char+1,R24
 1862                   .dbline 1163
 1862           ;                                                }
 1862           L308:
 1862                   .dbline 1164
 1862           ;                                               Dynamic_Offset_degree[1]=char2int(Dynamic_Offset_degree_char[1],flag);
 1862 20913002          lds R18,_flag
 1866 0091D102          lds R16,_Dynamic_Offset_degree_char+1
 186A 09D8              xcall _char2int
 186C 5801              movw R10,R16
 186E B092CD02          sts _Dynamic_Offset_degree+2+1,R11
 1872 A092CC02          sts _Dynamic_Offset_degree+2,R10
 1876                   .dbline 1165
 1876           ;                                               init_dynamic_offset();                    
 1876 0E949A02          xcall _init_dynamic_offset
 187A                   .dbline 1166
 187A           ;                                               Dynamic_Offset_degree_origin[dd_tem][1]=Dynamic_Offset_degree_char[1];
 187A 10912F02          lds R17,_dd_tem
 187E 03E0              ldi R16,3
 1880 0103              mulsu R16,R17
 1882 80E0              ldi R24,<_Dynamic_Offset_degree_origin+1
 1884 90E0              ldi R25,>_Dynamic_Offset_degree_origin+1
 1886 F001              movw R30,R0
 1888 E80F              add R30,R24
 188A F91F              adc R31,R25
 188C 2090D102          lds R2,_Dynamic_Offset_degree_char+1
 1890 2082              std z+0,R2
 1892                   .dbline 1167
 1892           ;                                          }//if(redata==0xb5)
 1892           L305:
 1892                   .dbline 1169
 1892           ;                       
 1892           ;                                          if(redata==0xb6)//第二关节偏移角，加1
 1892 80910200          lds R24,_redata
 1896 863B              cpi R24,182
 1898 41F5              brne L315
 189A           X132:
 189A                   .dbline 1170
 189A           ;                                          {
 189A                   .dbline 1171
 189A           ;                                           dd_tem=change_dd(d_tem);
 189A 00912E02          lds R16,_d_tem
 189E 7FDA              xcall _change_dd
 18A0 A02E              mov R10,R16
 18A2 A0922F02          sts _dd_tem,R10
 18A6                   .dbline 1172
 18A6           ;                                               flag=change_flag(d_tem);
 18A6 00912E02          lds R16,_d_tem
 18AA 90DA              xcall _change_flag
 18AC A02E              mov R10,R16
 18AE A0923002          sts _flag,R10
 18B2                   .dbline 1173
 18B2           ;                                               Dynamic_Offset_degree_char[1]++;
 18B2 8091D102          lds R24,_Dynamic_Offset_degree_char+1
 18B6 8F5F              subi R24,255    ; addi 1
 18B8 8093D102          sts _Dynamic_Offset_degree_char+1,R24
 18BC                   .dbline 1174
 18BC           ;                                               Dynamic_Offset_degree[1]=char2int(Dynamic_Offset_degree_char[1],flag);
 18BC 2A2D              mov R18,R10
 18BE 082F              mov R16,R24
 18C0 0E943F04          xcall _char2int
 18C4 5801              movw R10,R16
 18C6 B092CD02          sts _Dynamic_Offset_degree+2+1,R11
 18CA A092CC02          sts _Dynamic_Offset_degree+2,R10
 18CE                   .dbline 1175
 18CE           ;                                               init_dynamic_offset();                    
 18CE 0E949A02          xcall _init_dynamic_offset
 18D2                   .dbline 1176
 18D2           ;                                               Dynamic_Offset_degree_origin[dd_tem][1]=Dynamic_Offset_degree_char[1];
 18D2 10912F02          lds R17,_dd_tem
 18D6 03E0              ldi R16,3
 18D8 0103              mulsu R16,R17
 18DA 80E0              ldi R24,<_Dynamic_Offset_degree_origin+1
 18DC 90E0              ldi R25,>_Dynamic_Offset_degree_origin+1
 18DE F001              movw R30,R0
 18E0 E80F              add R30,R24
 18E2 F91F              adc R31,R25
 18E4 2090D102          lds R2,_Dynamic_Offset_degree_char+1
 18E8 2082              std z+0,R2
 18EA                   .dbline 1177
 18EA           ;                                          }//if(redata==0xb6)
 18EA           L315:
 18EA                   .dbline 1179
 18EA           ;                       
 18EA           ;                                          if(redata==0xb7)//第三关节偏移角，减1
 18EA 80910200          lds R24,_redata
 18EE 873B              cpi R24,183
 18F0 79F5              brne L322
 18F2           X133:
 18F2                   .dbline 1180
 18F2           ;                                          {
 18F2                   .dbline 1181
 18F2           ;                                           dd_tem=change_dd(d_tem);
 18F2 00912E02          lds R16,_d_tem
 18F6 53DA              xcall _change_dd
 18F8 A02E              mov R10,R16
 18FA A0922F02          sts _dd_tem,R10
 18FE                   .dbline 1182
 18FE           ;                                               flag=change_flag(d_tem);
 18FE 00912E02          lds R16,_d_tem
 1902 64DA              xcall _change_flag
 1904 A02E              mov R10,R16
 1906 A0923002          sts _flag,R10
 190A                   .dbline 1183
 190A           ;                                               if(Dynamic_Offset_degree_char[1]==0)
 190A 2090D102          lds R2,_Dynamic_Offset_degree_char+1
 190E 2220              tst R2
 1910 09F4              brne L324
 1912           X134:
 1912                   .dbline 1184
 1912           ;                                               {
 1912                   .dbline 1185
 1912           ;                                               }
 1912 05C0              xjmp L325
 1914           L324:
 1914                   .dbline 1187
 1914           ;                                               else
 1914           ;                                               {
 1914                   .dbline 1188
 1914           ;                                                Dynamic_Offset_degree_char[1]--;
 1914 8091D102          lds R24,_Dynamic_Offset_degree_char+1
 1918 8150              subi R24,1
 191A 8093D102          sts _Dynamic_Offset_degree_char+1,R24
 191E                   .dbline 1189
 191E           ;                                               }
 191E           L325:
 191E                   .dbline 1190
 191E           ;                                          Dynamic_Offset_degree[2]=char2int(Dynamic_Offset_degree_char[2],flag);
 191E 20913002          lds R18,_flag
 1922 0091D202          lds R16,_Dynamic_Offset_degree_char+2
 1926 0E943F04          xcall _char2int
 192A 5801              movw R10,R16
 192C B092CF02          sts _Dynamic_Offset_degree+4+1,R11
 1930 A092CE02          sts _Dynamic_Offset_degree+4,R10
 1934                   .dbline 1191
 1934           ;                                          init_dynamic_offset();                         
 1934 0E949A02          xcall _init_dynamic_offset
 1938                   .dbline 1192
 1938           ;                                          Dynamic_Offset_degree_origin[dd_tem][2]=Dynamic_Offset_degree_char[2];
 1938 10912F02          lds R17,_dd_tem
 193C 03E0              ldi R16,3
 193E 0103              mulsu R16,R17
 1940 80E0              ldi R24,<_Dynamic_Offset_degree_origin+2
 1942 90E0              ldi R25,>_Dynamic_Offset_degree_origin+2
 1944 F001              movw R30,R0
 1946 E80F              add R30,R24
 1948 F91F              adc R31,R25
 194A 2090D202          lds R2,_Dynamic_Offset_degree_char+2
 194E 2082              std z+0,R2
 1950                   .dbline 1193
 1950           ;                                          }//if(redata==0xb7)
 1950           L322:
 1950                   .dbline 1195
 1950           ;                       
 1950           ;                                          if(redata==0xb8)//第三关节偏移角，加1
 1950 80910200          lds R24,_redata
 1954 883B              cpi R24,184
 1956 41F5              brne L332
 1958           X135:
 1958                   .dbline 1196
 1958           ;                                          {
 1958                   .dbline 1197
 1958           ;                                          dd_tem=change_dd(d_tem);
 1958 00912E02          lds R16,_d_tem
 195C 20DA              xcall _change_dd
 195E A02E              mov R10,R16
 1960 A0922F02          sts _dd_tem,R10
 1964                   .dbline 1198
 1964           ;                                          flag=change_flag(d_tem);
 1964 00912E02          lds R16,_d_tem
 1968 31DA              xcall _change_flag
 196A A02E              mov R10,R16
 196C A0923002          sts _flag,R10
 1970                   .dbline 1199
 1970           ;                                          Dynamic_Offset_degree_char[2]++;
 1970 8091D202          lds R24,_Dynamic_Offset_degree_char+2
 1974 8F5F              subi R24,255    ; addi 1
 1976 8093D202          sts _Dynamic_Offset_degree_char+2,R24
 197A                   .dbline 1200
 197A           ;                                          Dynamic_Offset_degree[2]=char2int(Dynamic_Offset_degree_char[2],flag);
 197A 2A2D              mov R18,R10
 197C 082F              mov R16,R24
 197E 0E943F04          xcall _char2int
 1982 5801              movw R10,R16
 1984 B092CF02          sts _Dynamic_Offset_degree+4+1,R11
 1988 A092CE02          sts _Dynamic_Offset_degree+4,R10
 198C                   .dbline 1201
 198C           ;                                          init_dynamic_offset();                         
 198C 0E949A02          xcall _init_dynamic_offset
 1990                   .dbline 1202
 1990           ;                                          Dynamic_Offset_degree_origin[dd_tem][2]=Dynamic_Offset_degree_char[2];
 1990 10912F02          lds R17,_dd_tem
 1994 03E0              ldi R16,3
 1996 0103              mulsu R16,R17
 1998 80E0              ldi R24,<_Dynamic_Offset_degree_origin+2
 199A 90E0              ldi R25,>_Dynamic_Offset_degree_origin+2
 199C F001              movw R30,R0
 199E E80F              add R30,R24
 19A0 F91F              adc R31,R25
 19A2 2090D202          lds R2,_Dynamic_Offset_degree_char+2
 19A6 2082              std z+0,R2
 19A8                   .dbline 1203
 19A8           ;                                          }//if(redata==0xb8)                                                          
 19A8           L332:
 19A8                   .dbline 1204
 19A8           ;                                          senddata(redata); 
 19A8 00910200          lds R16,_redata
 19AC 0E94AB00          xcall _senddata
 19B0                   .dbline 1205
 19B0           ;                                          break;
 19B0 63C1              xjmp L241
 19B2           L339:
 19B2                   .dbline 1209
 19B2           ;                         
 19B2           ; 
 19B2           ;                                  case 0xc0:
 19B2           ;                                               isInstruction=1;
 19B2 81E0              ldi R24,1
 19B4 80931702          sts _isInstruction,R24
 19B8                   .dbline 1210
 19B8           ;                                  if(redata==0xc1)//改第一关节摆动幅度
 19B8 80910200          lds R24,_redata
 19BC 813C              cpi R24,193
 19BE B1F4              brne L340
 19C0           X136:
 19C0                   .dbline 1211
 19C0           ;                                          {
 19C0                   .dbline 1212
 19C0           ;                                            if(Amplitude_degree[0]==0)
 19C0 2090EE02          lds R2,_Amplitude_degree
 19C4 2220              tst R2
 19C6 09F4              brne L342
 19C8           X137:
 19C8                   .dbline 1213
 19C8           ;                                                {
 19C8                   .dbline 1214
 19C8           ;                                                }
 19C8 05C0              xjmp L343
 19CA           L342:
 19CA                   .dbline 1216
 19CA           ;                                                else
 19CA           ;                                                {
 19CA                   .dbline 1217
 19CA           ;                                                Amplitude_degree[0]--;
 19CA 8091EE02          lds R24,_Amplitude_degree
 19CE 8150              subi R24,1
 19D0 8093EE02          sts _Amplitude_degree,R24
 19D4                   .dbline 1218
 19D4           ;                                                }
 19D4           L343:
 19D4                   .dbline 1219
 19D4           ;                                          Amplitude_degree_tem[s_tem][0]=Amplitude_degree[0];//存为当前速度档的摆幅值
 19D4 10912C02          lds R17,_s_tem
 19D8 03E0              ldi R16,3
 19DA 0103              mulsu R16,R17
 19DC 80E0              ldi R24,<_Amplitude_degree_tem
 19DE 90E0              ldi R25,>_Amplitude_degree_tem
 19E0 F001              movw R30,R0
 19E2 E80F              add R30,R24
 19E4 F91F              adc R31,R25
 19E6 2090EE02          lds R2,_Amplitude_degree
 19EA 2082              std z+0,R2
 19EC                   .dbline 1220
 19EC           ;                                          }//if(redata==0xc1)
 19EC           L340:
 19EC                   .dbline 1222
 19EC           ;                                          
 19EC           ;                                          if(redata==0xc2)
 19EC 80910200          lds R24,_redata
 19F0 823C              cpi R24,194
 19F2 B1F4              brne L344
 19F4           X138:
 19F4                   .dbline 1223
 19F4           ;                                          {
 19F4                   .dbline 1224
 19F4           ;                                                if(Amplitude_degree[0]==90)
 19F4 8091EE02          lds R24,_Amplitude_degree
 19F8 8A35              cpi R24,90
 19FA 09F4              brne L346
 19FC           X139:
 19FC                   .dbline 1225
 19FC           ;                                                {
 19FC                   .dbline 1226
 19FC           ;                                                }
 19FC 05C0              xjmp L347
 19FE           L346:
 19FE                   .dbline 1228
 19FE           ;                                                else
 19FE           ;                                                {
 19FE                   .dbline 1229
 19FE           ;                                                Amplitude_degree[0]++;
 19FE 8091EE02          lds R24,_Amplitude_degree
 1A02 8F5F              subi R24,255    ; addi 1
 1A04 8093EE02          sts _Amplitude_degree,R24
 1A08                   .dbline 1230
 1A08           ;                                                }
 1A08           L347:
 1A08                   .dbline 1231
 1A08           ;                                         Amplitude_degree_tem[s_tem][0]=Amplitude_degree[0];
 1A08 10912C02          lds R17,_s_tem
 1A0C 03E0              ldi R16,3
 1A0E 0103              mulsu R16,R17
 1A10 80E0              ldi R24,<_Amplitude_degree_tem
 1A12 90E0              ldi R25,>_Amplitude_degree_tem
 1A14 F001              movw R30,R0
 1A16 E80F              add R30,R24
 1A18 F91F              adc R31,R25
 1A1A 2090EE02          lds R2,_Amplitude_degree
 1A1E 2082              std z+0,R2
 1A20                   .dbline 1232
 1A20           ;                                         }//if(redata==0xc2)   
 1A20           L344:
 1A20                   .dbline 1234
 1A20           ;                                         
 1A20           ;                                         if(redata==0xc3)//改第二关节摆动幅度
 1A20 80910200          lds R24,_redata
 1A24 833C              cpi R24,195
 1A26 B1F4              brne L348
 1A28           X140:
 1A28                   .dbline 1235
 1A28           ;                                         {
 1A28                   .dbline 1236
 1A28           ;                                          if(Amplitude_degree[1]==0)
 1A28 2090EF02          lds R2,_Amplitude_degree+1
 1A2C 2220              tst R2
 1A2E 09F4              brne L350
 1A30           X141:
 1A30                   .dbline 1237
 1A30           ;                                  {
 1A30                   .dbline 1238
 1A30           ;                                          }
 1A30 05C0              xjmp L351
 1A32           L350:
 1A32                   .dbline 1240
 1A32           ;                                          else
 1A32           ;                                  {
 1A32                   .dbline 1241
 1A32           ;                                          Amplitude_degree[1]--;
 1A32 8091EF02          lds R24,_Amplitude_degree+1
 1A36 8150              subi R24,1
 1A38 8093EF02          sts _Amplitude_degree+1,R24
 1A3C                   .dbline 1242
 1A3C           ;                                          }
 1A3C           L351:
 1A3C                   .dbline 1243
 1A3C           ;                                         Amplitude_degree_tem[s_tem][1]=Amplitude_degree[1];
 1A3C 10912C02          lds R17,_s_tem
 1A40 03E0              ldi R16,3
 1A42 0103              mulsu R16,R17
 1A44 80E0              ldi R24,<_Amplitude_degree_tem+1
 1A46 90E0              ldi R25,>_Amplitude_degree_tem+1
 1A48 F001              movw R30,R0
 1A4A E80F              add R30,R24
 1A4C F91F              adc R31,R25
 1A4E 2090EF02          lds R2,_Amplitude_degree+1
 1A52 2082              std z+0,R2
 1A54                   .dbline 1244
 1A54           ;                                         }//if(redata==0xc3)
 1A54           L348:
 1A54                   .dbline 1246
 1A54           ;                                         
 1A54           ;                                         if(redata==0xc4)
 1A54 80910200          lds R24,_redata
 1A58 843C              cpi R24,196
 1A5A B1F4              brne L356
 1A5C           X142:
 1A5C                   .dbline 1247
 1A5C           ;                                         {
 1A5C                   .dbline 1248
 1A5C           ;                                          if(Amplitude_degree[1]==90)//90=0x5A
 1A5C 8091EF02          lds R24,_Amplitude_degree+1
 1A60 8A35              cpi R24,90
 1A62 09F4              brne L358
 1A64           X143:
 1A64                   .dbline 1249
 1A64           ;                                          {
 1A64                   .dbline 1250
 1A64           ;                                          }
 1A64 05C0              xjmp L359
 1A66           L358:
 1A66                   .dbline 1252
 1A66           ;                                          else
 1A66           ;                                          {
 1A66                   .dbline 1253
 1A66           ;                                          Amplitude_degree[1]++;
 1A66 8091EF02          lds R24,_Amplitude_degree+1
 1A6A 8F5F              subi R24,255    ; addi 1
 1A6C 8093EF02          sts _Amplitude_degree+1,R24
 1A70                   .dbline 1254
 1A70           ;                                          }
 1A70           L359:
 1A70                   .dbline 1255
 1A70           ;                                 Amplitude_degree_tem[s_tem][1]=Amplitude_degree[1];
 1A70 10912C02          lds R17,_s_tem
 1A74 03E0              ldi R16,3
 1A76 0103              mulsu R16,R17
 1A78 80E0              ldi R24,<_Amplitude_degree_tem+1
 1A7A 90E0              ldi R25,>_Amplitude_degree_tem+1
 1A7C F001              movw R30,R0
 1A7E E80F              add R30,R24
 1A80 F91F              adc R31,R25
 1A82 2090EF02          lds R2,_Amplitude_degree+1
 1A86 2082              std z+0,R2
 1A88                   .dbline 1256
 1A88           ;                                         }//if(redata==0xc4)   
 1A88           L356:
 1A88                   .dbline 1258
 1A88           ;                                         
 1A88           ;                                         if(redata==0xc5)//改第三关节摆动幅度
 1A88 80910200          lds R24,_redata
 1A8C 853C              cpi R24,197
 1A8E B1F4              brne L364
 1A90           X144:
 1A90                   .dbline 1259
 1A90           ;                                         {
 1A90                   .dbline 1260
 1A90           ;                                          if(Amplitude_degree[2]==0)
 1A90 2090F002          lds R2,_Amplitude_degree+2
 1A94 2220              tst R2
 1A96 09F4              brne L366
 1A98           X145:
 1A98                   .dbline 1261
 1A98           ;                                          {
 1A98                   .dbline 1262
 1A98           ;                                          }
 1A98 05C0              xjmp L367
 1A9A           L366:
 1A9A                   .dbline 1264
 1A9A           ;                                          else
 1A9A           ;                                          {
 1A9A                   .dbline 1265
 1A9A           ;                                          Amplitude_degree[2]--;
 1A9A 8091F002          lds R24,_Amplitude_degree+2
 1A9E 8150              subi R24,1
 1AA0 8093F002          sts _Amplitude_degree+2,R24
 1AA4                   .dbline 1266
 1AA4           ;                                          }
 1AA4           L367:
 1AA4                   .dbline 1267
 1AA4           ;                                 Amplitude_degree_tem[s_tem][2]=Amplitude_degree[2];
 1AA4 10912C02          lds R17,_s_tem
 1AA8 03E0              ldi R16,3
 1AAA 0103              mulsu R16,R17
 1AAC 80E0              ldi R24,<_Amplitude_degree_tem+2
 1AAE 90E0              ldi R25,>_Amplitude_degree_tem+2
 1AB0 F001              movw R30,R0
 1AB2 E80F              add R30,R24
 1AB4 F91F              adc R31,R25
 1AB6 2090F002          lds R2,_Amplitude_degree+2
 1ABA 2082              std z+0,R2
 1ABC                   .dbline 1268
 1ABC           ;                                         }//if(redata==0xc5)
 1ABC           L364:
 1ABC                   .dbline 1270
 1ABC           ;                                         
 1ABC           ;                                         if(redata==0xc6)
 1ABC 80910200          lds R24,_redata
 1AC0 863C              cpi R24,198
 1AC2 B1F4              brne L372
 1AC4           X146:
 1AC4                   .dbline 1271
 1AC4           ;                                         {
 1AC4                   .dbline 1272
 1AC4           ;                                  if(Amplitude_degree[2]==90)
 1AC4 8091F002          lds R24,_Amplitude_degree+2
 1AC8 8A35              cpi R24,90
 1ACA 09F4              brne L374
 1ACC           X147:
 1ACC                   .dbline 1273
 1ACC           ;                                  {
 1ACC                   .dbline 1274
 1ACC           ;                                  }
 1ACC 05C0              xjmp L375
 1ACE           L374:
 1ACE                   .dbline 1276
 1ACE           ;                                  else
 1ACE           ;                                  { 
 1ACE                   .dbline 1277
 1ACE           ;                                          Amplitude_degree[2]++;
 1ACE 8091F002          lds R24,_Amplitude_degree+2
 1AD2 8F5F              subi R24,255    ; addi 1
 1AD4 8093F002          sts _Amplitude_degree+2,R24
 1AD8                   .dbline 1278
 1AD8           ;                                          }
 1AD8           L375:
 1AD8                   .dbline 1279
 1AD8           ;                                Amplitude_degree_tem[s_tem][2]=Amplitude_degree[2];
 1AD8 10912C02          lds R17,_s_tem
 1ADC 03E0              ldi R16,3
 1ADE 0103              mulsu R16,R17
 1AE0 80E0              ldi R24,<_Amplitude_degree_tem+2
 1AE2 90E0              ldi R25,>_Amplitude_degree_tem+2
 1AE4 F001              movw R30,R0
 1AE6 E80F              add R30,R24
 1AE8 F91F              adc R31,R25
 1AEA 2090F002          lds R2,_Amplitude_degree+2
 1AEE 2082              std z+0,R2
 1AF0                   .dbline 1280
 1AF0           ;                                        }//if(redata==0xc6)
 1AF0           L372:
 1AF0                   .dbline 1282
 1AF0           ;                                        
 1AF0           ;                                        if(redata==0xc7)//第二关节减滞后角
 1AF0 80910200          lds R24,_redata
 1AF4 873C              cpi R24,199
 1AF6 51F4              brne L380
 1AF8           X148:
 1AF8                   .dbline 1283
 1AF8           ;                                        {
 1AF8                   .dbline 1284
 1AF8           ;                                         if(Neighbouring_Offset_degree[1]==0)
 1AF8 2090EC02          lds R2,_Neighbouring_Offset_degree+1
 1AFC 2220              tst R2
 1AFE 09F4              brne L382
 1B00           X149:
 1B00                   .dbline 1285
 1B00           ;                                         {
 1B00                   .dbline 1286
 1B00           ;                                         }
 1B00 05C0              xjmp L383
 1B02           L382:
 1B02                   .dbline 1288
 1B02           ;                                         else
 1B02           ;                                         {
 1B02                   .dbline 1289
 1B02           ;                                         Neighbouring_Offset_degree[1]--;
 1B02 8091EC02          lds R24,_Neighbouring_Offset_degree+1
 1B06 8150              subi R24,1
 1B08 8093EC02          sts _Neighbouring_Offset_degree+1,R24
 1B0C                   .dbline 1290
 1B0C           ;                                         }                                       
 1B0C           L383:
 1B0C                   .dbline 1291
 1B0C           ;                                        }//if(redata==0xc7)
 1B0C           L380:
 1B0C                   .dbline 1293
 1B0C           ;                                        
 1B0C           ;                                        if(redata==0xc8)//第二关节加滞后角
 1B0C 80910200          lds R24,_redata
 1B10 883C              cpi R24,200
 1B12 51F4              brne L386
 1B14           X150:
 1B14                   .dbline 1294
 1B14           ;                                        {
 1B14                   .dbline 1295
 1B14           ;                                         if(Neighbouring_Offset_degree[1]==255)
 1B14 8091EC02          lds R24,_Neighbouring_Offset_degree+1
 1B18 8F3F              cpi R24,255
 1B1A 09F4              brne L388
 1B1C           X151:
 1B1C                   .dbline 1296
 1B1C           ;                                         {
 1B1C                   .dbline 1297
 1B1C           ;                                         }
 1B1C 05C0              xjmp L389
 1B1E           L388:
 1B1E                   .dbline 1299
 1B1E           ;                                         else
 1B1E           ;                                         {
 1B1E                   .dbline 1300
 1B1E           ;                                         Neighbouring_Offset_degree[1]++;
 1B1E 8091EC02          lds R24,_Neighbouring_Offset_degree+1
 1B22 8F5F              subi R24,255    ; addi 1
 1B24 8093EC02          sts _Neighbouring_Offset_degree+1,R24
 1B28                   .dbline 1301
 1B28           ;                                         }
 1B28           L389:
 1B28                   .dbline 1302
 1B28           ;                                        }//if(redata==0xc8)
 1B28           L386:
 1B28                   .dbline 1304
 1B28           ;                                        
 1B28           ;                                        if(redata==0xc9)//第三关节减滞后角
 1B28 80910200          lds R24,_redata
 1B2C 893C              cpi R24,201
 1B2E 51F4              brne L392
 1B30           X152:
 1B30                   .dbline 1305
 1B30           ;                                        {
 1B30                   .dbline 1306
 1B30           ;                                         if(Neighbouring_Offset_degree[2]==0)
 1B30 2090ED02          lds R2,_Neighbouring_Offset_degree+2
 1B34 2220              tst R2
 1B36 09F4              brne L394
 1B38           X153:
 1B38                   .dbline 1307
 1B38           ;                                         {
 1B38                   .dbline 1308
 1B38           ;                                         }
 1B38 05C0              xjmp L395
 1B3A           L394:
 1B3A                   .dbline 1310
 1B3A           ;                                         else
 1B3A           ;                                         {
 1B3A                   .dbline 1311
 1B3A           ;                                         Neighbouring_Offset_degree[2]--;
 1B3A 8091ED02          lds R24,_Neighbouring_Offset_degree+2
 1B3E 8150              subi R24,1
 1B40 8093ED02          sts _Neighbouring_Offset_degree+2,R24
 1B44                   .dbline 1312
 1B44           ;                                         }
 1B44           L395:
 1B44                   .dbline 1313
 1B44           ;                                        }//if(redata==0xc9)
 1B44           L392:
 1B44                   .dbline 1315
 1B44           ;                                        
 1B44           ;                                        if(redata==0xc0)//第三关节加滞后角
 1B44 80910200          lds R24,_redata
 1B48 803C              cpi R24,192
 1B4A 51F4              brne L398
 1B4C           X154:
 1B4C                   .dbline 1316
 1B4C           ;                                        {
 1B4C                   .dbline 1317
 1B4C           ;                                         if(Neighbouring_Offset_degree[2]==255)
 1B4C 8091ED02          lds R24,_Neighbouring_Offset_degree+2
 1B50 8F3F              cpi R24,255
 1B52 09F4              brne L400
 1B54           X155:
 1B54                   .dbline 1318
 1B54           ;                                         {
 1B54                   .dbline 1319
 1B54           ;                                         }
 1B54 05C0              xjmp L401
 1B56           L400:
 1B56                   .dbline 1321
 1B56           ;                                         else
 1B56           ;                                         {
 1B56                   .dbline 1322
 1B56           ;                                         Neighbouring_Offset_degree[2]++;
 1B56 8091ED02          lds R24,_Neighbouring_Offset_degree+2
 1B5A 8F5F              subi R24,255    ; addi 1
 1B5C 8093ED02          sts _Neighbouring_Offset_degree+2,R24
 1B60                   .dbline 1323
 1B60           ;                                         }
 1B60           L401:
 1B60                   .dbline 1324
 1B60           ;                                        }//if(redata==0xc0)
 1B60           L398:
 1B60                   .dbline 1325
 1B60           ;                                        senddata(redata);
 1B60 00910200          lds R16,_redata
 1B64 0E94AB00          xcall _senddata
 1B68                   .dbline 1326
 1B68           ;                                        break;
 1B68 87C0              xjmp L241
 1B6A           L404:
 1B6A                   .dbline 1331
 1B6A           ; 
 1B6A           ;       /////////----测试指令--END----//////////////
 1B6A           ; 
 1B6A           ;                           case 0xf0://是否结束位
 1B6A           ;                                   if(redata==0xfc)
 1B6A 80910200          lds R24,_redata
 1B6E 8C3F              cpi R24,252
 1B70 09F0              breq X189
 1B72 82C0              xjmp L241
 1B74           X189:
 1B74           X156:
 1B74                   .dbline 1332
 1B74           ;                                               {
 1B74                   .dbline 1333
 1B74           ;                                                       e_change=1;//
 1B74 81E0              ldi R24,1
 1B76 80931402          sts _e_change,R24
 1B7A                   .dbline 1334
 1B7A           ;                                                       is_uart=1; //退出自动模式，进入手动控制模式
 1B7A 80931902          sts _is_uart,R24
 1B7E                   .dbline 1335
 1B7E           ;                                               }//if(redata==0xfc)
 1B7E                   .dbline 1336
 1B7E           ;                                               break;          
 1B7E 7CC0              xjmp L241
 1B80           L250:
 1B80                   .dbline 1338
 1B80           ;                           default://接收到的不是指令也不是结束位，重新接收下一次命令
 1B80           ;                                     isSrlStart=0;
 1B80 2224              clr R2
 1B82 20920702          sts _isSrlStart,R2
 1B86                   .dbline 1339
 1B86           ;                                         addr=0;
 1B86 20920902          sts _addr,R2
 1B8A                   .dbline 1340
 1B8A           ;                            }//switch(redata&0xf0)
 1B8A                   .dbline 1341
 1B8A           ;                         } //if(isInstruction==1) else
 1B8A                   .dbline 1343
 1B8A           ;                         
 1B8A           ;                  }//if(addr)
 1B8A 76C0              xjmp L241
 1B8C           L242:
 1B8C                   .dbline 1346
 1B8C           ;                  
 1B8C           ;                  else//地址码没接收，或已经接收但不匹配
 1B8C           ;                  {
 1B8C                   .dbline 1347
 1B8C           ;                    if(redata==(0x90|FISHID[0]))//接收地址码，匹配，置位标志位
 1B8C 80910A00          lds R24,_FISHID
 1B90 8069              ori R24,144
 1B92 20900200          lds R2,_redata
 1B96 2816              cp R2,R24
 1B98 21F4              brne L419
 1B9A           X157:
 1B9A                   .dbline 1348
 1B9A           ;                        {
 1B9A                   .dbline 1349
 1B9A           ;                        addr=1;
 1B9A 81E0              ldi R24,1
 1B9C 80930902          sts _addr,R24
 1BA0                   .dbline 1350
 1BA0           ;                        }//if(redata==(0x90|FISHID))
 1BA0 6BC0              xjmp L241
 1BA2           L419:
 1BA2                   .dbline 1353
 1BA2           ;                        
 1BA2           ;                        else//地址码不匹配，清零开始位标志位，重新接收下一次指令
 1BA2           ;                        {
 1BA2                   .dbline 1354
 1BA2           ;                        isSrlStart=0;
 1BA2 2224              clr R2
 1BA4 20920702          sts _isSrlStart,R2
 1BA8                   .dbline 1355
 1BA8           ;                        }//if(redata==(0x90|FISHID)) else
 1BA8                   .dbline 1357
 1BA8           ;                        
 1BA8           ;                  }//if(addr) else
 1BA8                   .dbline 1359
 1BA8           ;                  
 1BA8           ;                }//if(isSrlStart)
 1BA8 67C0              xjmp L241
 1BAA           L240:
 1BAA                   .dbline 1363
 1BAA           ; 
 1BAA           ;       /////////----初始化i2c的通信协议--BEGIN----//////////////
 1BAA           ; 
 1BAA           ;                else if(isSrlStartI2c)//若已经发送初始化i2c的起始位，判断地址码（0x74，起确定指令的作用）是否匹配
 1BAA 20900802          lds R2,_isSrlStartI2c
 1BAE 2220              tst R2
 1BB0 09F4              brne X190
 1BB2 54C0              xjmp L421
 1BB4           X190:
 1BB4           X158:
 1BB4                   .dbline 1364
 1BB4           ;                {
 1BB4                   .dbline 1365
 1BB4           ;                        if(addrI2c)//若地址码已经匹配，准备接收命令
 1BB4 20900A02          lds R2,_addrI2c
 1BB8 2220              tst R2
 1BBA 09F4              brne X191
 1BBC 43C0              xjmp L423
 1BBE           X191:
 1BBE           X159:
 1BBE                   .dbline 1366
 1BBE           ;                        {
 1BBE                   .dbline 1367
 1BBE           ;                                if(isInstructionI2c)//已经接受过命令了，那么判断是否是结束位
 1BBE 20901802          lds R2,_isInstructionI2c
 1BC2 2220              tst R2
 1BC4 91F0              breq L425
 1BC6           X160:
 1BC6                   .dbline 1368
 1BC6           ;                                {
 1BC6                   .dbline 1369
 1BC6           ;                                        if(redata==0xfb)
 1BC6 80910200          lds R24,_redata
 1BCA 8B3F              cpi R24,251
 1BCC 31F4              brne L427
 1BCE           X161:
 1BCE                   .dbline 1370
 1BCE           ;                                        {
 1BCE                   .dbline 1371
 1BCE           ;                                                i2c_change=1;
 1BCE 81E0              ldi R24,1
 1BD0 80931602          sts _i2c_change,R24
 1BD4                   .dbline 1372
 1BD4           ;                                                is_uart=1;
 1BD4 80931902          sts _is_uart,R24
 1BD8                   .dbline 1373
 1BD8           ;                                        }
 1BD8 4FC0              xjmp L422
 1BDA           L427:
 1BDA                   .dbline 1375
 1BDA           ;                                        else//接收到的不是结束位，那么这条指令无效，重新接收下一次命令
 1BDA           ;                                        {
 1BDA                   .dbline 1376
 1BDA           ;                                                isSrlStartI2c=0;
 1BDA 2224              clr R2
 1BDC 20920802          sts _isSrlStartI2c,R2
 1BE0                   .dbline 1377
 1BE0           ;                                                addrI2c=0;
 1BE0 20920A02          sts _addrI2c,R2
 1BE4                   .dbline 1378
 1BE4           ;                                                isInstructionI2c=0;
 1BE4 20921802          sts _isInstructionI2c,R2
 1BE8                   .dbline 1379
 1BE8           ;                                        }
 1BE8                   .dbline 1380
 1BE8           ;                                }
 1BE8 47C0              xjmp L422
 1BEA           L425:
 1BEA                   .dbline 1382
 1BEA           ;                                else//没有接收命令，则接收命令
 1BEA           ;                                {
 1BEA                   .dbline 1383
 1BEA           ;                                        switch(redata&0xf0)
 1BEA 40910200          lds R20,_redata
 1BEE 5527              clr R21
 1BF0 407F              andi R20,240
 1BF2 5070              andi R21,0
 1BF4 4038              cpi R20,128
 1BF6 E0E0              ldi R30,0
 1BF8 5E07              cpc R21,R30
 1BFA 49F0              breq L432
 1BFC           X162:
 1BFC 4038              cpi R20,128
 1BFE E0E0              ldi R30,0
 1C00 5E07              cpc R21,R30
 1C02 CCF0              brlt L429
 1C04           X163:
 1C04           L436:
 1C04 4B3F              cpi R20,251
 1C06 E0E0              ldi R30,0
 1C08 5E07              cpc R21,R30
 1C0A 59F0              breq L433
 1C0C           X164:
 1C0C 14C0              xjmp L429
 1C0E           L432:
 1C0E                   .dbline 1386
 1C0E           ;                                        {
 1C0E           ;                                        case 0x80:
 1C0E           ;                                                redata_i2c=redata;
 1C0E 20900200          lds R2,_redata
 1C12 20920000          sts _redata_i2c,R2
 1C16                   .dbline 1387
 1C16           ;                                                i_change=1;
 1C16 81E0              ldi R24,1
 1C18 80931502          sts _i_change,R24
 1C1C                   .dbline 1388
 1C1C           ;                                                isInstructionI2c=1;
 1C1C 80931802          sts _isInstructionI2c,R24
 1C20                   .dbline 1389
 1C20           ;                                                break;
 1C20 2BC0              xjmp L422
 1C22           L433:
 1C22                   .dbline 1391
 1C22           ;                                        case 0xfb:
 1C22           ;                                                if(redata==0xfb)
 1C22 80910200          lds R24,_redata
 1C26 8B3F              cpi R24,251
 1C28 39F5              brne L422
 1C2A           X165:
 1C2A                   .dbline 1392
 1C2A           ;                                                {
 1C2A                   .dbline 1393
 1C2A           ;                                                        i2c_change=1;
 1C2A 81E0              ldi R24,1
 1C2C 80931602          sts _i2c_change,R24
 1C30                   .dbline 1394
 1C30           ;                                                         is_uart=1;
 1C30 80931902          sts _is_uart,R24
 1C34                   .dbline 1395
 1C34           ;                                                }
 1C34                   .dbline 1396
 1C34           ;                                                break;
 1C34 21C0              xjmp L422
 1C36           L429:
 1C36                   .dbline 1398
 1C36           ;                                        default:
 1C36           ;                                                isSrlStartI2c=1;
 1C36 81E0              ldi R24,1
 1C38 80930802          sts _isSrlStartI2c,R24
 1C3C                   .dbline 1399
 1C3C           ;                                                addrI2c=0;
 1C3C 2224              clr R2
 1C3E 20920A02          sts _addrI2c,R2
 1C42                   .dbline 1400
 1C42           ;                                                break;
 1C42                   .dbline 1402
 1C42           ;                                        }
 1C42           ;                                }                                       
 1C42                   .dbline 1403
 1C42           ;                        }
 1C42 1AC0              xjmp L422
 1C44           L423:
 1C44                   .dbline 1407
 1C44           ; 
 1C44           ; 
 1C44           ;                        else//地址码没有接收，或者已接收但不匹配
 1C44           ;                        {
 1C44                   .dbline 1408
 1C44           ;                                if(redata==0x74)//接收地址码，匹配，置位标志位
 1C44 80910200          lds R24,_redata
 1C48 8437              cpi R24,116
 1C4A 21F4              brne L437
 1C4C           X166:
 1C4C                   .dbline 1409
 1C4C           ;                                {
 1C4C                   .dbline 1410
 1C4C           ;                                        addrI2c=1;
 1C4C 81E0              ldi R24,1
 1C4E 80930A02          sts _addrI2c,R24
 1C52                   .dbline 1411
 1C52           ;                                }
 1C52 12C0              xjmp L422
 1C54           L437:
 1C54                   .dbline 1413
 1C54           ;                                else//地址码不匹配，清零开始位标志位，重新接收下一次指令
 1C54           ;                                {
 1C54                   .dbline 1414
 1C54           ;                                        isSrlStartI2c=0;
 1C54 2224              clr R2
 1C56 20920802          sts _isSrlStartI2c,R2
 1C5A                   .dbline 1415
 1C5A           ;                                }                                      
 1C5A                   .dbline 1416
 1C5A           ;                        }
 1C5A                   .dbline 1417
 1C5A           ;                }
 1C5A 0EC0              xjmp L422
 1C5C           L421:
 1C5C                   .dbline 1419
 1C5C           ;                else
 1C5C           ;                {
 1C5C                   .dbline 1420
 1C5C           ;                   if(redata==0xaa)//判断起始位，置位标志位
 1C5C 80910200          lds R24,_redata
 1C60 8A3A              cpi R24,170
 1C62 19F4              brne L439
 1C64           X167:
 1C64                   .dbline 1421
 1C64           ;                       {
 1C64                   .dbline 1422
 1C64           ;                         isSrlStart=1;
 1C64 81E0              ldi R24,1
 1C66 80930702          sts _isSrlStart,R24
 1C6A                   .dbline 1423
 1C6A           ;                       }
 1C6A           L439:
 1C6A                   .dbline 1424
 1C6A           ;                       if(redata==0xcc)//判断初始化i2c的起始位
 1C6A 80910200          lds R24,_redata
 1C6E 8C3C              cpi R24,204
 1C70 19F4              brne L441
 1C72           X168:
 1C72                   .dbline 1425
 1C72           ;                       {
 1C72                   .dbline 1426
 1C72           ;                               isSrlStartI2c=1;
 1C72 81E0              ldi R24,1
 1C74 80930802          sts _isSrlStartI2c,R24
 1C78                   .dbline 1427
 1C78           ;                       }
 1C78           L441:
 1C78                   .dbline 1428
 1C78           ;                }//if(isSrlStart) else
 1C78           L422:
 1C78           L241:
 1C78                   .dbline 1432
 1C78           ; 
 1C78           ;       /////////----初始化i2c的通信协议--END----//////////////
 1C78           ; 
 1C78           ;       }//if(1)
 1C78           L238:
 1C78                   .dbline -2
 1C78           L237:
 1C78                   .dbline 0 ; func end
 1C78 0E940000          xcall pop_xgset300C
 1C7C 0990              ld R0,y+
 1C7E 0FBE              OUT 63,R0
 1C80 F991              ld R31,y+
 1C82 E991              ld R30,y+
 1C84 B991              ld R27,y+
 1C86 A991              ld R26,y+
 1C88 9991              ld R25,y+
 1C8A 8991              ld R24,y+
 1C8C 3991              ld R19,y+
 1C8E 2991              ld R18,y+
 1C90 1991              ld R17,y+
 1C92 0991              ld R16,y+
 1C94 9990              ld R9,y+
 1C96 8990              ld R8,y+
 1C98 7990              ld R7,y+
 1C9A 6990              ld R6,y+
 1C9C 5990              ld R5,y+
 1C9E 4990              ld R4,y+
 1CA0 3990              ld R3,y+
 1CA2 2990              ld R2,y+
 1CA4 1990              ld R1,y+
 1CA6 0990              ld R0,y+
 1CA8 1895              reti
 1CAA                   .dbend
                        .area vector(rom, abs)
                        .org 116
 0074 0C94550E          jmp _timer3_ovf_isr
                        .area text(rom, con, rel)
 1CAA                   .dbfile G:\wsg\SchoolTrain\FishRobot\机器鱼\机器鱼培训资料\机器鱼培训资料\机器鱼鱼体波程序\fish_0_100115\11fish.c
 1CAA                   .dbfunc e timer3_ovf_isr _timer3_ovf_isr fV
 1CAA           ;              i -> <dead>
                        .even
 1CAA           _timer3_ovf_isr::
 1CAA 0A92              st -y,R0
 1CAC 1A92              st -y,R1
 1CAE 2A92              st -y,R2
 1CB0 3A92              st -y,R3
 1CB2 4A92              st -y,R4
 1CB4 5A92              st -y,R5
 1CB6 6A92              st -y,R6
 1CB8 7A92              st -y,R7
 1CBA 8A92              st -y,R8
 1CBC 9A92              st -y,R9
 1CBE 0A93              st -y,R16
 1CC0 1A93              st -y,R17
 1CC2 2A93              st -y,R18
 1CC4 3A93              st -y,R19
 1CC6 8A93              st -y,R24
 1CC8 9A93              st -y,R25
 1CCA AA93              st -y,R26
 1CCC BA93              st -y,R27
 1CCE EA93              st -y,R30
 1CD0 FA93              st -y,R31
 1CD2 0FB6              IN R0,63
 1CD4 0A92              st -y,R0
 1CD6                   .dbline -1
 1CD6                   .dbline 1439
 1CD6           ; }
 1CD6           ; 
 1CD6           ; 
 1CD6           ; //***********************************计数器3溢出中断*****************************
 1CD6           ; #pragma interrupt_handler timer3_ovf_isr:30
 1CD6           ; void timer3_ovf_isr(void)
 1CD6           ; {
 1CD6                   .dbline 1442
 1CD6           ;   unsigned char i;
 1CD6           ;   
 1CD6           ;  TCNT3H = 0x00 ; //reload counter high value  INVALID SETTING
 1CD6 2224              clr R2
 1CD8 20928900          sts 137,R2
 1CDC                   .dbline 1443
 1CDC           ;  TCNT3L = 0x00 ; //reload counter low value   INVALID SETTING
 1CDC 20928800          sts 136,R2
 1CE0                   .dbline 1445
 1CE0           ;  
 1CE0           ;  if(Speed!=0)   //即没有启动则一直1500，中间位置
 1CE0 20900000          lds R2,_Speed
 1CE4 2220              tst R2
 1CE6 59F0              breq L444
 1CE8           X192:
 1CE8                   .dbline 1446
 1CE8           ;  {
 1CE8                   .dbline 1447
 1CE8           ;     Instant++;
 1CE8 80910100          lds R24,_Instant
 1CEC 8F5F              subi R24,255    ; addi 1
 1CEE 80930100          sts _Instant,R24
 1CF2                   .dbline 1448
 1CF2           ;       Instant=Instant%Speed;
 1CF2 122D              mov R17,R2
 1CF4 082F              mov R16,R24
 1CF6 0E940000          xcall mod8u
 1CFA 00930100          sts _Instant,R16
 1CFE                   .dbline 1449
 1CFE           ;  }
 1CFE           L444:
 1CFE                   .dbline 1450
 1CFE           ;       t_dynamic++;
 1CFE 80910500          lds R24,_t_dynamic
 1D02 8F5F              subi R24,255    ; addi 1
 1D04 80930500          sts _t_dynamic,R24
 1D08                   .dbline 1451
 1D08           ;       if(t_dynamic>Speed)
 1D08 20900000          lds R2,_Speed
 1D0C 3324              clr R3
 1D0E 482E              mov R4,R24
 1D10 5524              clr R5
 1D12 2414              cp R2,R4
 1D14 3504              cpc R3,R5
 1D16 14F4              brge L446
 1D18           X193:
 1D18                   .dbline 1452
 1D18           ;       {
 1D18                   .dbline 1453
 1D18           ;         t_dynamic=Speed;
 1D18 20920500          sts _t_dynamic,R2
 1D1C                   .dbline 1454
 1D1C           ;       }       
 1D1C           L446:
 1D1C                   .dbline 1455
 1D1C           ;     calculate_data();
 1D1C 0E94C602          xcall _calculate_data
 1D20                   .dbline 1456
 1D20           ;       OCR3A=Joint_Angle_value[2];
 1D20 2090C202          lds R2,_Joint_Angle_value+4
 1D24 3090C302          lds R3,_Joint_Angle_value+4+1
 1D28 30928700          sts 134+1,R3
 1D2C 20928600          sts 134,R2
 1D30                   .dbline -2
 1D30           L443:
 1D30                   .dbline 0 ; func end
 1D30 0990              ld R0,y+
 1D32 0FBE              OUT 63,R0
 1D34 F991              ld R31,y+
 1D36 E991              ld R30,y+
 1D38 B991              ld R27,y+
 1D3A A991              ld R26,y+
 1D3C 9991              ld R25,y+
 1D3E 8991              ld R24,y+
 1D40 3991              ld R19,y+
 1D42 2991              ld R18,y+
 1D44 1991              ld R17,y+
 1D46 0991              ld R16,y+
 1D48 9990              ld R9,y+
 1D4A 8990              ld R8,y+
 1D4C 7990              ld R7,y+
 1D4E 6990              ld R6,y+
 1D50 5990              ld R5,y+
 1D52 4990              ld R4,y+
 1D54 3990              ld R3,y+
 1D56 2990              ld R2,y+
 1D58 1990              ld R1,y+
 1D5A 0990              ld R0,y+
 1D5C 1895              reti
 1D5E                   .dbsym l i 1 c
 1D5E                   .dbend
                        .area vector(rom, abs)
                        .org 56
 0038 0C94AF0E          jmp _timer1_ovf_isr
                        .area text(rom, con, rel)
 1D5E                   .dbfile G:\wsg\SchoolTrain\FishRobot\机器鱼\机器鱼培训资料\机器鱼培训资料\机器鱼鱼体波程序\fish_0_100115\11fish.c
 1D5E                   .dbfunc e timer1_ovf_isr _timer1_ovf_isr fV
 1D5E           ;              i -> <dead>
                        .even
 1D5E           _timer1_ovf_isr::
 1D5E 0A92              st -y,R0
 1D60 1A92              st -y,R1
 1D62 2A92              st -y,R2
 1D64 3A92              st -y,R3
 1D66 4A92              st -y,R4
 1D68 5A92              st -y,R5
 1D6A 6A92              st -y,R6
 1D6C 7A92              st -y,R7
 1D6E 8A92              st -y,R8
 1D70 9A92              st -y,R9
 1D72 0A93              st -y,R16
 1D74 1A93              st -y,R17
 1D76 2A93              st -y,R18
 1D78 3A93              st -y,R19
 1D7A 8A93              st -y,R24
 1D7C 9A93              st -y,R25
 1D7E AA93              st -y,R26
 1D80 BA93              st -y,R27
 1D82 EA93              st -y,R30
 1D84 FA93              st -y,R31
 1D86 0FB6              IN R0,63
 1D88 0A92              st -y,R0
 1D8A                   .dbline -1
 1D8A                   .dbline 1465
 1D8A           ;       /*wang genghai*/
 1D8A           ;       //OCR3B=Joint_Angle_value[2];      
 1D8A           ;  
 1D8A           ; }
 1D8A           ; 
 1D8A           ; //***********************************计数器1溢出中断*****************************
 1D8A           ; #pragma interrupt_handler timer1_ovf_isr:15
 1D8A           ; void timer1_ovf_isr(void)
 1D8A           ; {
 1D8A                   .dbline 1468
 1D8A           ;     unsigned char i;
 1D8A           ;   
 1D8A           ;     TCNT1H = 0x00 ; //reload counter high value  INVALID SETTING
 1D8A 2224              clr R2
 1D8C 2DBC              out 0x2d,R2
 1D8E                   .dbline 1469
 1D8E           ;     TCNT1L = 0x00 ; //reload counter low value   INVALID SETTING
 1D8E 2CBC              out 0x2c,R2
 1D90                   .dbline 1471
 1D90           ;  
 1D90           ;     if(Speed!=0)   //即没有启动则一直1500，中间位置
 1D90 20900000          lds R2,_Speed
 1D94 2220              tst R2
 1D96 59F0              breq L450
 1D98           X194:
 1D98                   .dbline 1472
 1D98           ;     {
 1D98                   .dbline 1473
 1D98           ;           Instant++;
 1D98 80910100          lds R24,_Instant
 1D9C 8F5F              subi R24,255    ; addi 1
 1D9E 80930100          sts _Instant,R24
 1DA2                   .dbline 1482
 1DA2           ;                   //注意，在两个定时器的中断中，都增加了Instant++，实际是不必要的，只在一个定时器中断加就可以了。
 1DA2           ;               //两处都加和只加一处的区别，只是电机运动快了，因为两处都加，相当于离散点的间隔是原来的一半（原来20ms，现在10ms）。理论分析时注意即可，不影响使用。
 1DA2           ;               //详细解释  （一个摆动周期T定义为 左边――中间――右边――中间――左边）
 1DA2           ;               //只在一处加Instant++：一个摆动周期被离散为speed份，每份间隔20ms，即，T=（speed-1）X20    此时最快速度时用speed=23
 1DA2           ;               //两处都加Instant++：一个摆动周期被离散为speed份，每份间隔20/2ms，即，T=（speed-1）X10    此时最快速度时用speed=45(与上面23一个效果) 
 1DA2           ;               //以上计算公式有误差，修正如下――09.06.25
 1DA2           ;                       //只在一处加Instant++：一个摆动周期被离散为speed份，每份间隔20ms，即，T=（speed）X20    此时最快速度时用speed=23
 1DA2           ;                       //两处都加Instant++：一个摆动周期被离散为speed份，每份间隔20/2ms，即，T=（speed）X10    此时最快速度时用speed=45(与上面23一个效果)
 1DA2           ;           Instant=Instant%Speed;
 1DA2 122D              mov R17,R2
 1DA4 082F              mov R16,R24
 1DA6 0E940000          xcall mod8u
 1DAA 00930100          sts _Instant,R16
 1DAE                   .dbline 1483
 1DAE           ;    }
 1DAE           L450:
 1DAE                   .dbline 1484
 1DAE           ;     calculate_data(); 
 1DAE 0E94C602          xcall _calculate_data
 1DB2                   .dbline 1485
 1DB2           ;       OCR1A=Joint_Angle_value[0];      
 1DB2 2090BE02          lds R2,_Joint_Angle_value
 1DB6 3090BF02          lds R3,_Joint_Angle_value+1
 1DBA 3BBC              out 0x2b,R3
 1DBC 2ABC              out 0x2a,R2
 1DBE                   .dbline 1486
 1DBE           ;       OCR1B=Joint_Angle_value[1];  
 1DBE 2090C002          lds R2,_Joint_Angle_value+2
 1DC2 3090C102          lds R3,_Joint_Angle_value+2+1
 1DC6 39BC              out 0x29,R3
 1DC8 28BC              out 0x28,R2
 1DCA                   .dbline -2
 1DCA           L449:
 1DCA                   .dbline 0 ; func end
 1DCA 0990              ld R0,y+
 1DCC 0FBE              OUT 63,R0
 1DCE F991              ld R31,y+
 1DD0 E991              ld R30,y+
 1DD2 B991              ld R27,y+
 1DD4 A991              ld R26,y+
 1DD6 9991              ld R25,y+
 1DD8 8991              ld R24,y+
 1DDA 3991              ld R19,y+
 1DDC 2991              ld R18,y+
 1DDE 1991              ld R17,y+
 1DE0 0991              ld R16,y+
 1DE2 9990              ld R9,y+
 1DE4 8990              ld R8,y+
 1DE6 7990              ld R7,y+
 1DE8 6990              ld R6,y+
 1DEA 5990              ld R5,y+
 1DEC 4990              ld R4,y+
 1DEE 3990              ld R3,y+
 1DF0 2990              ld R2,y+
 1DF2 1990              ld R1,y+
 1DF4 0990              ld R0,y+
 1DF6 1895              reti
 1DF8                   .dbsym l i 1 c
 1DF8                   .dbend
 1DF8                   .dbfunc e main _main fV
 1DF8           ;          tem_y -> R22
 1DF8           ;            tem -> R22
 1DF8           ;              j -> R10
 1DF8           ;              i -> R20
                        .even
 1DF8           _main::
 1DF8 2A97              sbiw R28,10
 1DFA                   .dbline -1
 1DFA                   .dbline 1492
 1DFA           ; }
 1DFA           ; //*************************************************************************
 1DFA           ; //********************************主函数***********************************
 1DFA           ; //*************************************************************************
 1DFA           ; void main(void)
 1DFA           ; {   
 1DFA                   .dbline 1497
 1DFA           ;      unsigned char i;
 1DFA           ;        unsigned char tem;
 1DFA           ;        unsigned char tem_y;
 1DFA           ;        unsigned char j; 
 1DFA           ;        init_devices();//初始化
 1DFA 0E949700          xcall _init_devices
 1DFE                   .dbline 1498
 1DFE           ;        TWI_Master_Initialise(); //*IIC控制初始化
 1DFE 0E940000          xcall _TWI_Master_Initialise
 1E02                   .dbline 1499
 1E02           ;        SEI();
 1E02 7894              sei
 1E04                   .dbline 1502
 1E04           ;      /////////////////////////////////////////////////////
 1E04           ;        //读i2c数据
 1E04           ;        i2c_read(ADD_i,FISHID_I2C,FISHID,1);
 1E04 81E0              ldi R24,1
 1E06 8A83              std y+2,R24
 1E08 80E0              ldi R24,<_FISHID
 1E0A 90E0              ldi R25,>_FISHID
 1E0C 9983              std y+1,R25
 1E0E 8883              std y+0,R24
 1E10 20E0              ldi R18,<_FISHID_I2C
 1E12 30E0              ldi R19,>_FISHID_I2C
 1E14 00E1              ldi R16,16
 1E16 0AD8              xcall _i2c_read
 1E18                   .dbline 1503
 1E18           ;        i2c_read(ADD_f,freqs_I2C,freqs,1);
 1E18 81E0              ldi R24,1
 1E1A 8A83              std y+2,R24
 1E1C 80E0              ldi R24,<_freqs
 1E1E 90E0              ldi R25,>_freqs
 1E20 9983              std y+1,R25
 1E22 8883              std y+0,R24
 1E24 20E0              ldi R18,<_freqs_I2C
 1E26 30E0              ldi R19,>_freqs_I2C
 1E28 00E2              ldi R16,32
 1E2A 00D8              xcall _i2c_read
 1E2C                   .dbline 1505
 1E2C           ;        //PORTD=freq[freqs[0]];
 1E2C           ;        i2c_read(ADD_t,degree_I2C,Static_Offset_degree,3);
 1E2C 83E0              ldi R24,3
 1E2E 8A83              std y+2,R24
 1E30 80E0              ldi R24,<_Static_Offset_degree
 1E32 90E0              ldi R25,>_Static_Offset_degree
 1E34 9983              std y+1,R25
 1E36 8883              std y+0,R24
 1E38 20E0              ldi R18,<_degree_I2C
 1E3A 30E0              ldi R19,>_degree_I2C
 1E3C 00E3              ldi R16,48
 1E3E 0E941607          xcall _i2c_read
 1E42                   .dbline 1506
 1E42           ;        i2c_read(ADD_s1,Speed_tem_I2C1,Speed_tem_z1,8);
 1E42 88E0              ldi R24,8
 1E44 8A83              std y+2,R24
 1E46 80E0              ldi R24,<_Speed_tem_z1
 1E48 90E0              ldi R25,>_Speed_tem_z1
 1E4A 9983              std y+1,R25
 1E4C 8883              std y+0,R24
 1E4E 20E0              ldi R18,<_Speed_tem_I2C1
 1E50 30E0              ldi R19,>_Speed_tem_I2C1
 1E52 00E4              ldi R16,64
 1E54 0E941607          xcall _i2c_read
 1E58                   .dbline 1507
 1E58           ;        i2c_read(ADD_s2,Speed_tem_I2C2,Speed_tem_z2,8);
 1E58 88E0              ldi R24,8
 1E5A 8A83              std y+2,R24
 1E5C 80E0              ldi R24,<_Speed_tem_z2
 1E5E 90E0              ldi R25,>_Speed_tem_z2
 1E60 9983              std y+1,R25
 1E62 8883              std y+0,R24
 1E64 20E0              ldi R18,<_Speed_tem_I2C2
 1E66 30E0              ldi R19,>_Speed_tem_I2C2
 1E68 08E4              ldi R16,72
 1E6A 0E941607          xcall _i2c_read
 1E6E                   .dbline 1508
 1E6E           ;        two2one(Speed_tem_z,Speed_tem_z1,Speed_tem_z2);
 1E6E 80E0              ldi R24,<_Speed_tem_z2
 1E70 90E0              ldi R25,>_Speed_tem_z2
 1E72 9983              std y+1,R25
 1E74 8883              std y+0,R24
 1E76 20E0              ldi R18,<_Speed_tem_z1
 1E78 30E0              ldi R19,>_Speed_tem_z1
 1E7A 00E0              ldi R16,<_Speed_tem_z
 1E7C 10E0              ldi R17,>_Speed_tem_z
 1E7E 0E948D04          xcall _two2one
 1E82                   .dbline 1509
 1E82           ;        for(i=0;i<=15;i++)
 1E82 4427              clr R20
 1E84 0FC0              xjmp L457
 1E86           L454:
 1E86                   .dbline 1510
 1E86           ;        {
 1E86                   .dbline 1511
 1E86           ;             Speed_tem[i]=Speed_tem_z[i];    //Speed_tem[i] = Speed_Amplitudeem_z[i];//Speed_Amplitudeem_z[i];//*为什么会有错？？
 1E86 80E0              ldi R24,<_Speed_tem_z
 1E88 90E0              ldi R25,>_Speed_tem_z
 1E8A E42F              mov R30,R20
 1E8C FF27              clr R31
 1E8E E80F              add R30,R24
 1E90 F91F              adc R31,R25
 1E92 2080              ldd R2,z+0
 1E94 80E0              ldi R24,<_Speed_tem
 1E96 90E0              ldi R25,>_Speed_tem
 1E98 E42F              mov R30,R20
 1E9A FF27              clr R31
 1E9C E80F              add R30,R24
 1E9E F91F              adc R31,R25
 1EA0 2082              std z+0,R2
 1EA2                   .dbline 1512
 1EA2           ;        }
 1EA2           L455:
 1EA2                   .dbline 1509
 1EA2 4395              inc R20
 1EA4           L457:
 1EA4                   .dbline 1509
 1EA4 8FE0              ldi R24,15
 1EA6 8417              cp R24,R20
 1EA8 70F7              brsh L454
 1EAA           X195:
 1EAA                   .dbline 1513
 1EAA           ;        i2c_read(ADD_d,Neighbouring_Offset_degree_I2C,Neighbouring_Offset_degree,3);
 1EAA 83E0              ldi R24,3
 1EAC 8A83              std y+2,R24
 1EAE 80E0              ldi R24,<_Neighbouring_Offset_degree
 1EB0 90E0              ldi R25,>_Neighbouring_Offset_degree
 1EB2 9983              std y+1,R25
 1EB4 8883              std y+0,R24
 1EB6 20E0              ldi R18,<_Neighbouring_Offset_degree_I2C
 1EB8 30E0              ldi R19,>_Neighbouring_Offset_degree_I2C
 1EBA 00E5              ldi R16,80
 1EBC 0E941607          xcall _i2c_read
 1EC0                   .dbline 1514
 1EC0           ;        i2c_read(ADD_1,Amplitude_degree_tem_I2C1,Amplitude_degree_tem_z1,8);
 1EC0 88E0              ldi R24,8
 1EC2 8A83              std y+2,R24
 1EC4 80E0              ldi R24,<_Amplitude_degree_tem_z1
 1EC6 90E0              ldi R25,>_Amplitude_degree_tem_z1
 1EC8 9983              std y+1,R25
 1ECA 8883              std y+0,R24
 1ECC 20E0              ldi R18,<_Amplitude_degree_tem_I2C1
 1ECE 30E0              ldi R19,>_Amplitude_degree_tem_I2C1
 1ED0 00E6              ldi R16,96
 1ED2 0E941607          xcall _i2c_read
 1ED6                   .dbline 1515
 1ED6           ;        i2c_read(ADD_2,Amplitude_degree_tem_I2C2,Amplitude_degree_tem_z2,8);
 1ED6 88E0              ldi R24,8
 1ED8 8A83              std y+2,R24
 1EDA 80E0              ldi R24,<_Amplitude_degree_tem_z2
 1EDC 90E0              ldi R25,>_Amplitude_degree_tem_z2
 1EDE 9983              std y+1,R25
 1EE0 8883              std y+0,R24
 1EE2 20E0              ldi R18,<_Amplitude_degree_tem_I2C2
 1EE4 30E0              ldi R19,>_Amplitude_degree_tem_I2C2
 1EE6 08E6              ldi R16,104
 1EE8 0E941607          xcall _i2c_read
 1EEC                   .dbline 1516
 1EEC           ;        i2c_read(ADD_3,Amplitude_degree_tem_I2C3,Amplitude_degree_tem_z3,8);
 1EEC 88E0              ldi R24,8
 1EEE 8A83              std y+2,R24
 1EF0 80E0              ldi R24,<_Amplitude_degree_tem_z3
 1EF2 90E0              ldi R25,>_Amplitude_degree_tem_z3
 1EF4 9983              std y+1,R25
 1EF6 8883              std y+0,R24
 1EF8 20E0              ldi R18,<_Amplitude_degree_tem_I2C3
 1EFA 30E0              ldi R19,>_Amplitude_degree_tem_I2C3
 1EFC 00E7              ldi R16,112
 1EFE 0E941607          xcall _i2c_read
 1F02                   .dbline 1517
 1F02           ;        i2c_read(ADD_4,Amplitude_degree_tem_I2C4,Amplitude_degree_tem_z4,8);
 1F02 88E0              ldi R24,8
 1F04 8A83              std y+2,R24
 1F06 80E0              ldi R24,<_Amplitude_degree_tem_z4
 1F08 90E0              ldi R25,>_Amplitude_degree_tem_z4
 1F0A 9983              std y+1,R25
 1F0C 8883              std y+0,R24
 1F0E 20E0              ldi R18,<_Amplitude_degree_tem_I2C4
 1F10 30E0              ldi R19,>_Amplitude_degree_tem_I2C4
 1F12 08E7              ldi R16,120
 1F14 0E941607          xcall _i2c_read
 1F18                   .dbline 1518
 1F18           ;        i2c_read(ADD_5,Amplitude_degree_tem_I2C5,Amplitude_degree_tem_z5,8);
 1F18 88E0              ldi R24,8
 1F1A 8A83              std y+2,R24
 1F1C 80E0              ldi R24,<_Amplitude_degree_tem_z5
 1F1E 90E0              ldi R25,>_Amplitude_degree_tem_z5
 1F20 9983              std y+1,R25
 1F22 8883              std y+0,R24
 1F24 20E0              ldi R18,<_Amplitude_degree_tem_I2C5
 1F26 30E0              ldi R19,>_Amplitude_degree_tem_I2C5
 1F28 00E8              ldi R16,128
 1F2A 0E941607          xcall _i2c_read
 1F2E                   .dbline 1519
 1F2E           ;        i2c_read(ADD_6,Amplitude_degree_tem_I2C6,Amplitude_degree_tem_z6,8);
 1F2E 88E0              ldi R24,8
 1F30 8A83              std y+2,R24
 1F32 80E0              ldi R24,<_Amplitude_degree_tem_z6
 1F34 90E0              ldi R25,>_Amplitude_degree_tem_z6
 1F36 9983              std y+1,R25
 1F38 8883              std y+0,R24
 1F3A 20E0              ldi R18,<_Amplitude_degree_tem_I2C6
 1F3C 30E0              ldi R19,>_Amplitude_degree_tem_I2C6
 1F3E 08E8              ldi R16,136
 1F40 0E941607          xcall _i2c_read
 1F44                   .dbline 1520
 1F44           ;        six2one(Amplitude_degree_tem_z,Amplitude_degree_tem_z1,Amplitude_degree_tem_z2,Amplitude_degree_tem_z3,Amplitude_degree_tem_z4,Amplitude_degree_tem_z5,Amplitude_degree_tem_z6);  
 1F44 80E0              ldi R24,<_Amplitude_degree_tem_z6
 1F46 90E0              ldi R25,>_Amplitude_degree_tem_z6
 1F48 9987              std y+9,R25
 1F4A 8887              std y+8,R24
 1F4C 80E0              ldi R24,<_Amplitude_degree_tem_z5
 1F4E 90E0              ldi R25,>_Amplitude_degree_tem_z5
 1F50 9F83              std y+7,R25
 1F52 8E83              std y+6,R24
 1F54 80E0              ldi R24,<_Amplitude_degree_tem_z4
 1F56 90E0              ldi R25,>_Amplitude_degree_tem_z4
 1F58 9D83              std y+5,R25
 1F5A 8C83              std y+4,R24
 1F5C 80E0              ldi R24,<_Amplitude_degree_tem_z3
 1F5E 90E0              ldi R25,>_Amplitude_degree_tem_z3
 1F60 9B83              std y+3,R25
 1F62 8A83              std y+2,R24
 1F64 80E0              ldi R24,<_Amplitude_degree_tem_z2
 1F66 90E0              ldi R25,>_Amplitude_degree_tem_z2
 1F68 9983              std y+1,R25
 1F6A 8883              std y+0,R24
 1F6C 20E0              ldi R18,<_Amplitude_degree_tem_z1
 1F6E 30E0              ldi R19,>_Amplitude_degree_tem_z1
 1F70 00E0              ldi R16,<_Amplitude_degree_tem_z
 1F72 10E0              ldi R17,>_Amplitude_degree_tem_z
 1F74 0E942506          xcall _six2one
 1F78                   .dbline 1521
 1F78           ;        for(i=0;i<=47;i++)
 1F78 4427              clr R20
 1F7A 1FC0              xjmp L461
 1F7C           L458:
 1F7C                   .dbline 1522
 1F7C           ;        {
 1F7C                   .dbline 1523
 1F7C           ;               Amplitude_degree_tem[i/3][i%3]=Amplitude_degree_tem_z[i];
 1F7C 13E0              ldi R17,3
 1F7E 042F              mov R16,R20
 1F80 0E940000          xcall div8u
 1F84 83E0              ldi R24,3
 1F86 102F              mov R17,R16
 1F88 082F              mov R16,R24
 1F8A 0103              mulsu R16,R17
 1F8C 1001              movw R2,R0
 1F8E 80E0              ldi R24,<_Amplitude_degree_tem
 1F90 90E0              ldi R25,>_Amplitude_degree_tem
 1F92 280E              add R2,R24
 1F94 391E              adc R3,R25
 1F96 23E0              ldi R18,3
 1F98 30E0              ldi R19,0
 1F9A 042F              mov R16,R20
 1F9C 1127              clr R17
 1F9E 0E940000          xcall mod16s
 1FA2 F801              movw R30,R16
 1FA4 E20D              add R30,R2
 1FA6 F31D              adc R31,R3
 1FA8 80E0              ldi R24,<_Amplitude_degree_tem_z
 1FAA 90E0              ldi R25,>_Amplitude_degree_tem_z
 1FAC A42F              mov R26,R20
 1FAE BB27              clr R27
 1FB0 A80F              add R26,R24
 1FB2 B91F              adc R27,R25
 1FB4 2C90              ld R2,x
 1FB6 2082              std z+0,R2
 1FB8                   .dbline 1524
 1FB8           ;        }      
 1FB8           L459:
 1FB8                   .dbline 1521
 1FB8 4395              inc R20
 1FBA           L461:
 1FBA                   .dbline 1521
 1FBA 8FE2              ldi R24,47
 1FBC 8417              cp R24,R20
 1FBE F0F6              brsh L458
 1FC0           X196:
 1FC0                   .dbline 1525
 1FC0           ;        i2c_read(ADD_10,Dynamic_Offset_degree_origin_I2C1,Dynamic_Offset_degree_origin_z1,8);
 1FC0 88E0              ldi R24,8
 1FC2 8A83              std y+2,R24
 1FC4 80E0              ldi R24,<_Dynamic_Offset_degree_origin_z1
 1FC6 90E0              ldi R25,>_Dynamic_Offset_degree_origin_z1
 1FC8 9983              std y+1,R25
 1FCA 8883              std y+0,R24
 1FCC 20E0              ldi R18,<_Dynamic_Offset_degree_origin_I2C1
 1FCE 30E0              ldi R19,>_Dynamic_Offset_degree_origin_I2C1
 1FD0 00E9              ldi R16,144
 1FD2 0E941607          xcall _i2c_read
 1FD6                   .dbline 1526
 1FD6           ;        i2c_read(ADD_20,Dynamic_Offset_degree_origin_I2C2,Dynamic_Offset_degree_origin_z2,8);
 1FD6 88E0              ldi R24,8
 1FD8 8A83              std y+2,R24
 1FDA 80E0              ldi R24,<_Dynamic_Offset_degree_origin_z2
 1FDC 90E0              ldi R25,>_Dynamic_Offset_degree_origin_z2
 1FDE 9983              std y+1,R25
 1FE0 8883              std y+0,R24
 1FE2 20E0              ldi R18,<_Dynamic_Offset_degree_origin_I2C2
 1FE4 30E0              ldi R19,>_Dynamic_Offset_degree_origin_I2C2
 1FE6 08E9              ldi R16,152
 1FE8 0E941607          xcall _i2c_read
 1FEC                   .dbline 1527
 1FEC           ;        i2c_read(ADD_30,Dynamic_Offset_degree_origin_I2C3,Dynamic_Offset_degree_origin_z3,8);
 1FEC 88E0              ldi R24,8
 1FEE 8A83              std y+2,R24
 1FF0 80E0              ldi R24,<_Dynamic_Offset_degree_origin_z3
 1FF2 90E0              ldi R25,>_Dynamic_Offset_degree_origin_z3
 1FF4 9983              std y+1,R25
 1FF6 8883              std y+0,R24
 1FF8 20E0              ldi R18,<_Dynamic_Offset_degree_origin_I2C3
 1FFA 30E0              ldi R19,>_Dynamic_Offset_degree_origin_I2C3
 1FFC 00EA              ldi R16,160
 1FFE 0E941607          xcall _i2c_read
 2002                   .dbline 1528
 2002           ;        three2one(Dynamic_Offset_degree_origin_z,Dynamic_Offset_degree_origin_z1,Dynamic_Offset_degree_origin_z2,Dynamic_Offset_degree_origin_z3);  
 2002 80E0              ldi R24,<_Dynamic_Offset_degree_origin_z3
 2004 90E0              ldi R25,>_Dynamic_Offset_degree_origin_z3
 2006 9B83              std y+3,R25
 2008 8A83              std y+2,R24
 200A 80E0              ldi R24,<_Dynamic_Offset_degree_origin_z2
 200C 90E0              ldi R25,>_Dynamic_Offset_degree_origin_z2
 200E 9983              std y+1,R25
 2010 8883              std y+0,R24
 2012 20E0              ldi R18,<_Dynamic_Offset_degree_origin_z1
 2014 30E0              ldi R19,>_Dynamic_Offset_degree_origin_z1
 2016 00E0              ldi R16,<_Dynamic_Offset_degree_origin_z
 2018 10E0              ldi R17,>_Dynamic_Offset_degree_origin_z
 201A 0E942005          xcall _three2one
 201E                   .dbline 1529
 201E           ;        for(i=0;i<=23;i++)
 201E 4427              clr R20
 2020 1FC0              xjmp L465
 2022           L462:
 2022                   .dbline 1530
 2022           ;        {
 2022                   .dbline 1531
 2022           ;               Dynamic_Offset_degree_origin[i/3][i%3]=Dynamic_Offset_degree_origin_z[i];
 2022 13E0              ldi R17,3
 2024 042F              mov R16,R20
 2026 0E940000          xcall div8u
 202A 83E0              ldi R24,3
 202C 102F              mov R17,R16
 202E 082F              mov R16,R24
 2030 0103              mulsu R16,R17
 2032 1001              movw R2,R0
 2034 80E0              ldi R24,<_Dynamic_Offset_degree_origin
 2036 90E0              ldi R25,>_Dynamic_Offset_degree_origin
 2038 280E              add R2,R24
 203A 391E              adc R3,R25
 203C 23E0              ldi R18,3
 203E 30E0              ldi R19,0
 2040 042F              mov R16,R20
 2042 1127              clr R17
 2044 0E940000          xcall mod16s
 2048 F801              movw R30,R16
 204A E20D              add R30,R2
 204C F31D              adc R31,R3
 204E 80E0              ldi R24,<_Dynamic_Offset_degree_origin_z
 2050 90E0              ldi R25,>_Dynamic_Offset_degree_origin_z
 2052 A42F              mov R26,R20
 2054 BB27              clr R27
 2056 A80F              add R26,R24
 2058 B91F              adc R27,R25
 205A 2C90              ld R2,x
 205C 2082              std z+0,R2
 205E                   .dbline 1532
 205E           ;      }
 205E           L463:
 205E                   .dbline 1529
 205E 4395              inc R20
 2060           L465:
 2060                   .dbline 1529
 2060 87E1              ldi R24,23
 2062 8417              cp R24,R20
 2064 F0F6              brsh L462
 2066           X197:
 2066                   .dbline 1534
 2066           ; ////////////////////////////////////////////////////
 2066           ;        CLI();
 2066 F894              cli
 2068                   .dbline 1535
 2068           ;        timer3_init();
 2068 0E945E00          xcall _timer3_init
 206C                   .dbline 1536
 206C           ;        timer1_init();
 206C 0E947800          xcall _timer1_init
 2070                   .dbline 1537
 2070           ;        SEI();
 2070 7894              sei
 2072                   .dbline 1538
 2072           ;        init_data();
 2072 0E942604          xcall _init_data
 2076                   .dbline 1539
 2076           ;        init_static_offset();
 2076 0E947102          xcall _init_static_offset
 207A                   .dbline 1540
 207A           ;        calculate_data();
 207A 0E94C602          xcall _calculate_data
 207E                   .dbline 1542
 207E           ;        
 207E           ;        CLI();
 207E F894              cli
 2080                   .dbline 1543
 2080           ;        TCCR3B=0x00;           //暂停定时／计数器3  最后两位设为0即可
 2080 2224              clr R2
 2082 20928A00          sts 138,R2
 2086                   .dbline 1544
 2086           ;        TCCR1B=0x00;           //暂停定时／计数器3  最后两位设为0即可
 2086 2EBC              out 0x2e,R2
 2088                   .dbline 1546
 2088           ;       
 2088           ;        ICR3=PWM_Period_value;//计数器3上限值TOP
 2088 20900300          lds R2,_PWM_Period_value
 208C 30900400          lds R3,_PWM_Period_value+1
 2090 30928100          sts 128+1,R3
 2094 20928000          sts 128,R2
 2098                   .dbline 1547
 2098           ;        ICR1=PWM_Period_value;//计数器1上限值TOP
 2098 37BC              out 0x27,R3
 209A 26BC              out 0x26,R2
 209C                   .dbline 1548
 209C           ;        OCR1A=Joint_Angle_value[0];
 209C 2090BE02          lds R2,_Joint_Angle_value
 20A0 3090BF02          lds R3,_Joint_Angle_value+1
 20A4 3BBC              out 0x2b,R3
 20A6 2ABC              out 0x2a,R2
 20A8                   .dbline 1549
 20A8           ;        OCR1B=Joint_Angle_value[1];
 20A8 2090C002          lds R2,_Joint_Angle_value+2
 20AC 3090C102          lds R3,_Joint_Angle_value+2+1
 20B0 39BC              out 0x29,R3
 20B2 28BC              out 0x28,R2
 20B4                   .dbline 1550
 20B4           ;        OCR3A=Joint_Angle_value[2];
 20B4 2090C202          lds R2,_Joint_Angle_value+4
 20B8 3090C302          lds R3,_Joint_Angle_value+4+1
 20BC 30928700          sts 134+1,R3
 20C0 20928600          sts 134,R2
 20C4                   .dbline 1554
 20C4           ;        /*wang genggai*/
 20C4           ;       // OCR3B=Joint_Angle_value[2];
 20C4           ;        
 20C4           ;        SEI();         //re-enable interrupts
 20C4 7894              sei
 20C6                   .dbline 1555
 20C6           ;        TCCR3B=0x1A;   //启动定时／计数器3
 20C6 8AE1              ldi R24,26
 20C8 80938A00          sts 138,R24
 20CC                   .dbline 1556
 20CC           ;        TCCR1B=0x1A;   //启动定时／计数器1
 20CC 8EBD              out 0x2e,R24
 20CE 64C6              xjmp L469
 20D0           L468:
 20D0                   .dbline 1561
 20D0           ;        
 20D0           ; ////////////////////////////////////////////////////////////////////////////////
 20D0           ; ////////////////////////////////////////////////////////////////////////////////
 20D0           ;       while(1)
 20D0           ;       {
 20D0                   .dbline 1563
 20D0           ; ///////////----手动模式--BEGIN//////////////////////////////////////////
 20D0           ;          if(is_uart==1)//手动模式
 20D0 80911902          lds R24,_is_uart
 20D4 8130              cpi R24,1
 20D6 09F0              breq X286
 20D8 0AC5              xjmp L471
 20DA           X286:
 20DA           X198:
 20DA                   .dbline 1564
 20DA           ;          {
 20DA                   .dbline 1565
 20DA           ;          if(i2c_canshu)
 20DA 20903102          lds R2,_i2c_canshu
 20DE 2220              tst R2
 20E0 09F4              brne X287
 20E2 6EC1              xjmp L473
 20E4           X287:
 20E4           X199:
 20E4                   .dbline 1566
 20E4           ;          {
 20E4                   .dbline 1567
 20E4           ;            i2c_canshu=0;
 20E4 2224              clr R2
 20E6 20923102          sts _i2c_canshu,R2
 20EA                   .dbline 1568
 20EA           ;                baocun_i++;
 20EA 80910400          lds R24,_baocun_i
 20EE 8F5F              subi R24,255    ; addi 1
 20F0 80930400          sts _baocun_i,R24
 20F4                   .dbline 1569
 20F4           ;                switch(baocun_i)
 20F4 682F              mov R22,R24
 20F6 7727              clr R23
 20F8 6130              cpi R22,1
 20FA E0E0              ldi R30,0
 20FC 7E07              cpc R23,R30
 20FE 49F1              breq L478
 2100           X200:
 2100 6230              cpi R22,2
 2102 E0E0              ldi R30,0
 2104 7E07              cpc R23,R30
 2106 09F4              brne X288
 2108 4DC0              xjmp L479
 210A           X288:
 210A           X201:
 210A 6330              cpi R22,3
 210C E0E0              ldi R30,0
 210E 7E07              cpc R23,R30
 2110 09F4              brne X289
 2112 58C0              xjmp L480
 2114           X289:
 2114           X202:
 2114 6430              cpi R22,4
 2116 E0E0              ldi R30,0
 2118 7E07              cpc R23,R30
 211A 09F4              brne X290
 211C A0C0              xjmp L489
 211E           X290:
 211E           X203:
 211E 6530              cpi R22,5
 2120 E0E0              ldi R30,0
 2122 7E07              cpc R23,R30
 2124 09F4              brne X291
 2126 BAC0              xjmp L490
 2128           X291:
 2128           X204:
 2128 6630              cpi R22,6
 212A E0E0              ldi R30,0
 212C 7E07              cpc R23,R30
 212E 09F4              brne X292
 2130 D4C0              xjmp L491
 2132           X292:
 2132           X205:
 2132 6730              cpi R22,7
 2134 E0E0              ldi R30,0
 2136 7E07              cpc R23,R30
 2138 09F4              brne X293
 213A DFC0              xjmp L492
 213C           X293:
 213C           X206:
 213C 6830              cpi R22,8
 213E E0E0              ldi R30,0
 2140 7E07              cpc R23,R30
 2142 09F4              brne X294
 2144 1BC1              xjmp L501
 2146           X294:
 2146           X207:
 2146 6930              cpi R22,9
 2148 E0E0              ldi R30,0
 214A 7E07              cpc R23,R30
 214C 09F4              brne X295
 214E 26C1              xjmp L502
 2150           X295:
 2150           X208:
 2150 37C1              xjmp L475
 2152           L478:
 2152                   .dbline 1572
 2152           ;                {
 2152           ;                case 1:
 2152           ;                               one2two(Speed_tem_z,Speed_tem_z1,Speed_tem_z2);
 2152 80E0              ldi R24,<_Speed_tem_z2
 2154 90E0              ldi R25,>_Speed_tem_z2
 2156 9983              std y+1,R25
 2158 8883              std y+0,R24
 215A 20E0              ldi R18,<_Speed_tem_z1
 215C 30E0              ldi R19,>_Speed_tem_z1
 215E 00E0              ldi R16,<_Speed_tem_z
 2160 10E0              ldi R17,>_Speed_tem_z
 2162 0E945104          xcall _one2two
 2166                   .dbline 1573
 2166           ;                       i2c_write(ADD_s1,Speed_tem_I2C1,Speed_tem_z1,8);
 2166 88E0              ldi R24,8
 2168 8A83              std y+2,R24
 216A 80E0              ldi R24,<_Speed_tem_z1
 216C 90E0              ldi R25,>_Speed_tem_z1
 216E 9983              std y+1,R25
 2170 8883              std y+0,R24
 2172 20E0              ldi R18,<_Speed_tem_I2C1
 2174 30E0              ldi R19,>_Speed_tem_I2C1
 2176 00E4              ldi R16,64
 2178 0E94F006          xcall _i2c_write
 217C                   .dbline 1574
 217C           ;                               delay_nms(200);
 217C 08EC              ldi R16,200
 217E 10E0              ldi R17,0
 2180 0E943700          xcall _delay_nms
 2184                   .dbline 1575
 2184           ;                       i2c_write(ADD_s2,Speed_tem_I2C2,Speed_tem_z2,8);
 2184 88E0              ldi R24,8
 2186 8A83              std y+2,R24
 2188 80E0              ldi R24,<_Speed_tem_z2
 218A 90E0              ldi R25,>_Speed_tem_z2
 218C 9983              std y+1,R25
 218E 8883              std y+0,R24
 2190 20E0              ldi R18,<_Speed_tem_I2C2
 2192 30E0              ldi R19,>_Speed_tem_I2C2
 2194 08E4              ldi R16,72
 2196 0E94F006          xcall _i2c_write
 219A                   .dbline 1576
 219A           ;                       senddata(baocun_i);
 219A 00910400          lds R16,_baocun_i
 219E 0E94AB00          xcall _senddata
 21A2                   .dbline 1577
 21A2           ;                               break;
 21A2 0EC1              xjmp L476
 21A4           L479:
 21A4                   .dbline 1579
 21A4           ;                case 2:
 21A4           ;                       i2c_write(ADD_d,Neighbouring_Offset_degree_I2C,Neighbouring_Offset_degree,3);//滞后角
 21A4 83E0              ldi R24,3
 21A6 8A83              std y+2,R24
 21A8 80E0              ldi R24,<_Neighbouring_Offset_degree
 21AA 90E0              ldi R25,>_Neighbouring_Offset_degree
 21AC 9983              std y+1,R25
 21AE 8883              std y+0,R24
 21B0 20E0              ldi R18,<_Neighbouring_Offset_degree_I2C
 21B2 30E0              ldi R19,>_Neighbouring_Offset_degree_I2C
 21B4 00E5              ldi R16,80
 21B6 0E94F006          xcall _i2c_write
 21BA                   .dbline 1580
 21BA           ;                       senddata(baocun_i);
 21BA 00910400          lds R16,_baocun_i
 21BE 0E94AB00          xcall _senddata
 21C2                   .dbline 1581
 21C2           ;                               break;
 21C2 FEC0              xjmp L476
 21C4           L480:
 21C4                   .dbline 1583
 21C4           ;                case 3://幅度
 21C4           ;                               for(i=0;i<=15;i++)
 21C4 4427              clr R20
 21C6 1EC0              xjmp L484
 21C8           L481:
 21C8                   .dbline 1584
 21C8           ;                               {
 21C8                   .dbline 1585
 21C8           ;                                 for(j=0;j<=2;j++)
 21C8 AA24              clr R10
 21CA 18C0              xjmp L488
 21CC           L485:
 21CC                   .dbline 1586
 21CC           ;                                 {
 21CC                   .dbline 1587
 21CC           ;                                   Amplitude_degree_tem_z[i*3+j]=Amplitude_degree_tem[i][j];
 21CC 03E0              ldi R16,3
 21CE 142F              mov R17,R20
 21D0 0103              mulsu R16,R17
 21D2 80E0              ldi R24,<_Amplitude_degree_tem
 21D4 90E0              ldi R25,>_Amplitude_degree_tem
 21D6 1001              movw R2,R0
 21D8 280E              add R2,R24
 21DA 391E              adc R3,R25
 21DC EA2D              mov R30,R10
 21DE FF27              clr R31
 21E0 E20D              add R30,R2
 21E2 F31D              adc R31,R3
 21E4 2080              ldd R2,z+0
 21E6 3A2C              mov R3,R10
 21E8 4424              clr R4
 21EA F001              movw R30,R0
 21EC E30D              add R30,R3
 21EE F41D              adc R31,R4
 21F0 80E0              ldi R24,<_Amplitude_degree_tem_z
 21F2 90E0              ldi R25,>_Amplitude_degree_tem_z
 21F4 E80F              add R30,R24
 21F6 F91F              adc R31,R25
 21F8 2082              std z+0,R2
 21FA                   .dbline 1588
 21FA           ;                                 }
 21FA           L486:
 21FA                   .dbline 1585
 21FA A394              inc R10
 21FC           L488:
 21FC                   .dbline 1585
 21FC 82E0              ldi R24,2
 21FE 8A15              cp R24,R10
 2200 28F7              brsh L485
 2202           X209:
 2202                   .dbline 1589
 2202           ;                               }
 2202           L482:
 2202                   .dbline 1583
 2202 4395              inc R20
 2204           L484:
 2204                   .dbline 1583
 2204 8FE0              ldi R24,15
 2206 8417              cp R24,R20
 2208 F8F6              brsh L481
 220A           X210:
 220A                   .dbline 1590
 220A           ;                               one2six(Amplitude_degree_tem_z,Amplitude_degree_tem_z1,Amplitude_degree_tem_z2,Amplitude_degree_tem_z3,Amplitude_degree_tem_z4,Amplitude_degree_tem_z5,Amplitude_degree_tem_z6);                        
 220A 80E0              ldi R24,<_Amplitude_degree_tem_z6
 220C 90E0              ldi R25,>_Amplitude_degree_tem_z6
 220E 9987              std y+9,R25
 2210 8887              std y+8,R24
 2212 80E0              ldi R24,<_Amplitude_degree_tem_z5
 2214 90E0              ldi R25,>_Amplitude_degree_tem_z5
 2216 9F83              std y+7,R25
 2218 8E83              std y+6,R24
 221A 80E0              ldi R24,<_Amplitude_degree_tem_z4
 221C 90E0              ldi R25,>_Amplitude_degree_tem_z4
 221E 9D83              std y+5,R25
 2220 8C83              std y+4,R24
 2222 80E0              ldi R24,<_Amplitude_degree_tem_z3
 2224 90E0              ldi R25,>_Amplitude_degree_tem_z3
 2226 9B83              std y+3,R25
 2228 8A83              std y+2,R24
 222A 80E0              ldi R24,<_Amplitude_degree_tem_z2
 222C 90E0              ldi R25,>_Amplitude_degree_tem_z2
 222E 9983              std y+1,R25
 2230 8883              std y+0,R24
 2232 20E0              ldi R18,<_Amplitude_degree_tem_z1
 2234 30E0              ldi R19,>_Amplitude_degree_tem_z1
 2236 00E0              ldi R16,<_Amplitude_degree_tem_z
 2238 10E0              ldi R17,>_Amplitude_degree_tem_z
 223A 0E947605          xcall _one2six
 223E                   .dbline 1591
 223E           ;                               i2c_write(ADD_1,Amplitude_degree_tem_I2C1,Amplitude_degree_tem_z1,8);
 223E 88E0              ldi R24,8
 2240 8A83              std y+2,R24
 2242 80E0              ldi R24,<_Amplitude_degree_tem_z1
 2244 90E0              ldi R25,>_Amplitude_degree_tem_z1
 2246 9983              std y+1,R25
 2248 8883              std y+0,R24
 224A 20E0              ldi R18,<_Amplitude_degree_tem_I2C1
 224C 30E0              ldi R19,>_Amplitude_degree_tem_I2C1
 224E 00E6              ldi R16,96
 2250 0E94F006          xcall _i2c_write
 2254                   .dbline 1592
 2254           ;                       senddata(baocun_i);
 2254 00910400          lds R16,_baocun_i
 2258 0E94AB00          xcall _senddata
 225C                   .dbline 1593
 225C           ;                               break;
 225C B1C0              xjmp L476
 225E           L489:
 225E                   .dbline 1595
 225E           ;                case 4:
 225E           ;                               i2c_write(ADD_2,Amplitude_degree_tem_I2C2,Amplitude_degree_tem_z2,8);
 225E 88E0              ldi R24,8
 2260 8A83              std y+2,R24
 2262 80E0              ldi R24,<_Amplitude_degree_tem_z2
 2264 90E0              ldi R25,>_Amplitude_degree_tem_z2
 2266 9983              std y+1,R25
 2268 8883              std y+0,R24
 226A 20E0              ldi R18,<_Amplitude_degree_tem_I2C2
 226C 30E0              ldi R19,>_Amplitude_degree_tem_I2C2
 226E 08E6              ldi R16,104
 2270 0E94F006          xcall _i2c_write
 2274                   .dbline 1596
 2274           ;                               delay_nms(200);
 2274 08EC              ldi R16,200
 2276 10E0              ldi R17,0
 2278 0E943700          xcall _delay_nms
 227C                   .dbline 1597
 227C           ;                               i2c_write(ADD_3,Amplitude_degree_tem_I2C3,Amplitude_degree_tem_z3,8);
 227C 88E0              ldi R24,8
 227E 8A83              std y+2,R24
 2280 80E0              ldi R24,<_Amplitude_degree_tem_z3
 2282 90E0              ldi R25,>_Amplitude_degree_tem_z3
 2284 9983              std y+1,R25
 2286 8883              std y+0,R24
 2288 20E0              ldi R18,<_Amplitude_degree_tem_I2C3
 228A 30E0              ldi R19,>_Amplitude_degree_tem_I2C3
 228C 00E7              ldi R16,112
 228E 0E94F006          xcall _i2c_write
 2292                   .dbline 1598
 2292           ;                               senddata(baocun_i);
 2292 00910400          lds R16,_baocun_i
 2296 0E94AB00          xcall _senddata
 229A                   .dbline 1599
 229A           ;                               break;
 229A 92C0              xjmp L476
 229C           L490:
 229C                   .dbline 1601
 229C           ;                case 5:
 229C           ;                               i2c_write(ADD_4,Amplitude_degree_tem_I2C4,Amplitude_degree_tem_z4,8);
 229C 88E0              ldi R24,8
 229E 8A83              std y+2,R24
 22A0 80E0              ldi R24,<_Amplitude_degree_tem_z4
 22A2 90E0              ldi R25,>_Amplitude_degree_tem_z4
 22A4 9983              std y+1,R25
 22A6 8883              std y+0,R24
 22A8 20E0              ldi R18,<_Amplitude_degree_tem_I2C4
 22AA 30E0              ldi R19,>_Amplitude_degree_tem_I2C4
 22AC 08E7              ldi R16,120
 22AE 0E94F006          xcall _i2c_write
 22B2                   .dbline 1602
 22B2           ;                               delay_nms(200);
 22B2 08EC              ldi R16,200
 22B4 10E0              ldi R17,0
 22B6 0E943700          xcall _delay_nms
 22BA                   .dbline 1603
 22BA           ;                               i2c_write(ADD_5,Amplitude_degree_tem_I2C5,Amplitude_degree_tem_z5,8);
 22BA 88E0              ldi R24,8
 22BC 8A83              std y+2,R24
 22BE 80E0              ldi R24,<_Amplitude_degree_tem_z5
 22C0 90E0              ldi R25,>_Amplitude_degree_tem_z5
 22C2 9983              std y+1,R25
 22C4 8883              std y+0,R24
 22C6 20E0              ldi R18,<_Amplitude_degree_tem_I2C5
 22C8 30E0              ldi R19,>_Amplitude_degree_tem_I2C5
 22CA 00E8              ldi R16,128
 22CC 0E94F006          xcall _i2c_write
 22D0                   .dbline 1604
 22D0           ;                       senddata(baocun_i);
 22D0 00910400          lds R16,_baocun_i
 22D4 0E94AB00          xcall _senddata
 22D8                   .dbline 1605
 22D8           ;                               break;
 22D8 73C0              xjmp L476
 22DA           L491:
 22DA                   .dbline 1607
 22DA           ;                case 6:
 22DA           ;                               i2c_write(ADD_6,Amplitude_degree_tem_I2C6,Amplitude_degree_tem_z6,8);
 22DA 88E0              ldi R24,8
 22DC 8A83              std y+2,R24
 22DE 80E0              ldi R24,<_Amplitude_degree_tem_z6
 22E0 90E0              ldi R25,>_Amplitude_degree_tem_z6
 22E2 9983              std y+1,R25
 22E4 8883              std y+0,R24
 22E6 20E0              ldi R18,<_Amplitude_degree_tem_I2C6
 22E8 30E0              ldi R19,>_Amplitude_degree_tem_I2C6
 22EA 08E8              ldi R16,136
 22EC 0E94F006          xcall _i2c_write
 22F0                   .dbline 1608
 22F0           ;                               senddata(baocun_i);
 22F0 00910400          lds R16,_baocun_i
 22F4 0E94AB00          xcall _senddata
 22F8                   .dbline 1609
 22F8           ;                       break;
 22F8 63C0              xjmp L476
 22FA           L492:
 22FA                   .dbline 1611
 22FA           ;                case 7://转弯偏移角
 22FA           ;                               for(i=0;i<=7;i++)
 22FA 4427              clr R20
 22FC 1EC0              xjmp L496
 22FE           L493:
 22FE                   .dbline 1612
 22FE           ;                               {
 22FE                   .dbline 1613
 22FE           ;                                 for(j=0;j<=2;j++) 
 22FE AA24              clr R10
 2300 18C0              xjmp L500
 2302           L497:
 2302                   .dbline 1614
 2302           ;                                 {
 2302                   .dbline 1615
 2302           ;                                   Dynamic_Offset_degree_origin_z[i*3+j]=Dynamic_Offset_degree_origin[i][j];
 2302 03E0              ldi R16,3
 2304 142F              mov R17,R20
 2306 0103              mulsu R16,R17
 2308 80E0              ldi R24,<_Dynamic_Offset_degree_origin
 230A 90E0              ldi R25,>_Dynamic_Offset_degree_origin
 230C 1001              movw R2,R0
 230E 280E              add R2,R24
 2310 391E              adc R3,R25
 2312 EA2D              mov R30,R10
 2314 FF27              clr R31
 2316 E20D              add R30,R2
 2318 F31D              adc R31,R3
 231A 2080              ldd R2,z+0
 231C 3A2C              mov R3,R10
 231E 4424              clr R4
 2320 F001              movw R30,R0
 2322 E30D              add R30,R3
 2324 F41D              adc R31,R4
 2326 80E0              ldi R24,<_Dynamic_Offset_degree_origin_z
 2328 90E0              ldi R25,>_Dynamic_Offset_degree_origin_z
 232A E80F              add R30,R24
 232C F91F              adc R31,R25
 232E 2082              std z+0,R2
 2330                   .dbline 1616
 2330           ;                                 }
 2330           L498:
 2330                   .dbline 1613
 2330 A394              inc R10
 2332           L500:
 2332                   .dbline 1613
 2332 82E0              ldi R24,2
 2334 8A15              cp R24,R10
 2336 28F7              brsh L497
 2338           X211:
 2338                   .dbline 1617
 2338           ;                               }
 2338           L494:
 2338                   .dbline 1611
 2338 4395              inc R20
 233A           L496:
 233A                   .dbline 1611
 233A 87E0              ldi R24,7
 233C 8417              cp R24,R20
 233E F8F6              brsh L493
 2340           X212:
 2340                   .dbline 1618
 2340           ;                               one2three(Dynamic_Offset_degree_origin_z,Dynamic_Offset_degree_origin_z1,Dynamic_Offset_degree_origin_z2,Dynamic_Offset_degree_origin_z3);                      
 2340 80E0              ldi R24,<_Dynamic_Offset_degree_origin_z3
 2342 90E0              ldi R25,>_Dynamic_Offset_degree_origin_z3
 2344 9B83              std y+3,R25
 2346 8A83              std y+2,R24
 2348 80E0              ldi R24,<_Dynamic_Offset_degree_origin_z2
 234A 90E0              ldi R25,>_Dynamic_Offset_degree_origin_z2
 234C 9983              std y+1,R25
 234E 8883              std y+0,R24
 2350 20E0              ldi R18,<_Dynamic_Offset_degree_origin_z1
 2352 30E0              ldi R19,>_Dynamic_Offset_degree_origin_z1
 2354 00E0              ldi R16,<_Dynamic_Offset_degree_origin_z
 2356 10E0              ldi R17,>_Dynamic_Offset_degree_origin_z
 2358 0E94C804          xcall _one2three
 235C                   .dbline 1619
 235C           ;                               i2c_write(ADD_10,Dynamic_Offset_degree_origin_I2C1,Dynamic_Offset_degree_origin_z1,8);
 235C 88E0              ldi R24,8
 235E 8A83              std y+2,R24
 2360 80E0              ldi R24,<_Dynamic_Offset_degree_origin_z1
 2362 90E0              ldi R25,>_Dynamic_Offset_degree_origin_z1
 2364 9983              std y+1,R25
 2366 8883              std y+0,R24
 2368 20E0              ldi R18,<_Dynamic_Offset_degree_origin_I2C1
 236A 30E0              ldi R19,>_Dynamic_Offset_degree_origin_I2C1
 236C 00E9              ldi R16,144
 236E 0E94F006          xcall _i2c_write
 2372                   .dbline 1620
 2372           ;                       senddata(baocun_i);
 2372 00910400          lds R16,_baocun_i
 2376 0E94AB00          xcall _senddata
 237A                   .dbline 1621
 237A           ;                               break;
 237A 22C0              xjmp L476
 237C           L501:
 237C                   .dbline 1623
 237C           ;                case 8:
 237C           ;                               i2c_write(ADD_20,Dynamic_Offset_degree_origin_I2C2,Dynamic_Offset_degree_origin_z2,8);
 237C 88E0              ldi R24,8
 237E 8A83              std y+2,R24
 2380 80E0              ldi R24,<_Dynamic_Offset_degree_origin_z2
 2382 90E0              ldi R25,>_Dynamic_Offset_degree_origin_z2
 2384 9983              std y+1,R25
 2386 8883              std y+0,R24
 2388 20E0              ldi R18,<_Dynamic_Offset_degree_origin_I2C2
 238A 30E0              ldi R19,>_Dynamic_Offset_degree_origin_I2C2
 238C 08E9              ldi R16,152
 238E 0E94F006          xcall _i2c_write
 2392                   .dbline 1624
 2392           ;                               senddata(baocun_i);
 2392 00910400          lds R16,_baocun_i
 2396 0E94AB00          xcall _senddata
 239A                   .dbline 1625
 239A           ;                               break;
 239A 12C0              xjmp L476
 239C           L502:
 239C                   .dbline 1626
 239C           ;                case 9:baocun_i=0;
 239C 2224              clr R2
 239E 20920400          sts _baocun_i,R2
 23A2                   .dbline 1627
 23A2           ;                               i2c_write(ADD_30,Dynamic_Offset_degree_origin_I2C3,Dynamic_Offset_degree_origin_z3,8);
 23A2 88E0              ldi R24,8
 23A4 8A83              std y+2,R24
 23A6 80E0              ldi R24,<_Dynamic_Offset_degree_origin_z3
 23A8 90E0              ldi R25,>_Dynamic_Offset_degree_origin_z3
 23AA 9983              std y+1,R25
 23AC 8883              std y+0,R24
 23AE 20E0              ldi R18,<_Dynamic_Offset_degree_origin_I2C3
 23B0 30E0              ldi R19,>_Dynamic_Offset_degree_origin_I2C3
 23B2 00EA              ldi R16,160
 23B4 0E94F006          xcall _i2c_write
 23B8                   .dbline 1628
 23B8           ;                       senddata(baocun_i);
 23B8 00910400          lds R16,_baocun_i
 23BC 0E94AB00          xcall _senddata
 23C0                   .dbline 1629
 23C0           ;                               break;  
 23C0           L475:
 23C0           L476:
 23C0                   .dbline 1631
 23C0           ;                }//switch baocun_i               
 23C0           ;          }//if(i2c_canshu)
 23C0           L473:
 23C0                   .dbline 1633
 23C0           ;                  
 23C0           ;          if(i2c_change == 1)
 23C0 80911602          lds R24,_i2c_change
 23C4 8130              cpi R24,1
 23C6 69F4              brne L503
 23C8           X213:
 23C8                   .dbline 1634
 23C8           ;          {
 23C8                   .dbline 1635
 23C8           ;                       i2c_init();
 23C8 0E944707          xcall _i2c_init
 23CC                   .dbline 1636
 23CC           ;                       i2c_change=0;
 23CC 2224              clr R2
 23CE 20921602          sts _i2c_change,R2
 23D2                   .dbline 1637
 23D2           ;                       isSrlStartI2c=0;
 23D2 20920802          sts _isSrlStartI2c,R2
 23D6                   .dbline 1638
 23D6           ;                       addrI2c=0;
 23D6 20920A02          sts _addrI2c,R2
 23DA                   .dbline 1639
 23DA           ;                       isInstructionI2c=0;
 23DA 20921802          sts _isInstructionI2c,R2
 23DE                   .dbline 1640
 23DE           ;                       i_change=0;
 23DE 20921502          sts _i_change,R2
 23E2                   .dbline 1641
 23E2           ;          }//if(i2c_change)
 23E2           L503:
 23E2                   .dbline 1643
 23E2           ; 
 23E2           ;          if(e_change)//接收到结束位,处理指令
 23E2 20901402          lds R2,_e_change
 23E6 2220              tst R2
 23E8 09F4              brne X296
 23EA FEC1              xjmp L505
 23EC           X296:
 23EC           X214:
 23EC                   .dbline 1644
 23EC           ;          {
 23EC                   .dbline 1646
 23EC           ;          //senddata(FISHID[0]);
 23EC           ;          redata=redata_tem;
 23EC 20900100          lds R2,_redata_tem
 23F0 20920200          sts _redata,R2
 23F4                   .dbline 1647
 23F4           ;            if(s_change)//速度变化
 23F4 20900B02          lds R2,_s_change
 23F8 2220              tst R2
 23FA 09F4              brne X297
 23FC 6DC0              xjmp L507
 23FE           X297:
 23FE           X215:
 23FE                   .dbline 1648
 23FE           ;                {
 23FE                   .dbline 1649
 23FE           ;                        id_change=0;
 23FE 2224              clr R2
 2400 20921302          sts _id_change,R2
 2404                   .dbline 1650
 2404           ;                       id_fan=(FISHID[0]<<5)|(redata_fan&0x0f);
 2404 80910200          lds R24,_redata_fan
 2408 8F70              andi R24,15
 240A 20900A00          lds R2,_FISHID
 240E 220C              lsl R2
 2410 220C              lsl R2
 2412 220C              lsl R2
 2414 220C              lsl R2
 2416 220C              lsl R2
 2418 282A              or R2,R24
 241A 20920300          sts _id_fan,R2
 241E                   .dbline 1651
 241E           ;                   if((redata_fan>>4)<<4==0xd0)
 241E 80910200          lds R24,_redata_fan
 2422 8295              swap R24
 2424 8F70              andi R24,#0x0F
 2426 8F70              andi R24,#0x0F
 2428 8295              swap R24
 242A 803D              cpi R24,208
 242C 21F4              brne L509
 242E           X216:
 242E                   .dbline 1652
 242E           ;                     id_fan=id_fan|0x10;
 242E 822D              mov R24,R2
 2430 8061              ori R24,16
 2432 80930300          sts _id_fan,R24
 2436           L509:
 2436                   .dbline 1656
 2436           ;                   ///////senddata(id_fan);    //前三位用来表示id号，第４位为１时为速度，０为方向，后四位为具体的速度或是方向的值
 2436           ;          
 2436           ;                       //senddata(t_dynamic);////////////////////
 2436           ;                       s_tem=redata&0x0f;//速度档0-15
 2436 80910200          lds R24,_redata
 243A 8F70              andi R24,15
 243C 80932C02          sts _s_tem,R24
 2440                   .dbline 1657
 2440           ;                       if(s_tem==0)//速度0时，停止，直
 2440 8823              tst R24
 2442 29F5              brne L511
 2444           X217:
 2444                   .dbline 1658
 2444           ;                       {
 2444                   .dbline 1659
 2444           ;                         for(i=0;i<=2;i++)
 2444 4427              clr R20
 2446 0DC0              xjmp L516
 2448           L513:
 2448                   .dbline 1660
 2448           ;                               Dynamic_Offset_degree [i]=0;
 2448 80E0              ldi R24,<_Dynamic_Offset_degree
 244A 90E0              ldi R25,>_Dynamic_Offset_degree
 244C E42F              mov R30,R20
 244E FF27              clr R31
 2450 EE0F              lsl R30
 2452 FF1F              rol R31
 2454 E80F              add R30,R24
 2456 F91F              adc R31,R25
 2458 2224              clr R2
 245A 3324              clr R3
 245C 3182              std z+1,R3
 245E 2082              std z+0,R2
 2460           L514:
 2460                   .dbline 1659
 2460 4395              inc R20
 2462           L516:
 2462                   .dbline 1659
 2462 82E0              ldi R24,2
 2464 8417              cp R24,R20
 2466 80F7              brsh L513
 2468           X218:
 2468                   .dbline 1661
 2468           ;                         init_dynamic_offset();
 2468 0E949A02          xcall _init_dynamic_offset
 246C                   .dbline 1662
 246C           ;                 for(i=0;i<Joint_Num;i++)
 246C 4427              clr R20
 246E 0DC0              xjmp L520
 2470           L517:
 2470                   .dbline 1663
 2470           ;                   {
 2470                   .dbline 1664
 2470           ;                   Dynamic_Offset_value_last[i]=0;
 2470 80E0              ldi R24,<_Dynamic_Offset_value_last
 2472 90E0              ldi R25,>_Dynamic_Offset_value_last
 2474 E42F              mov R30,R20
 2476 FF27              clr R31
 2478 EE0F              lsl R30
 247A FF1F              rol R31
 247C E80F              add R30,R24
 247E F91F              adc R31,R25
 2480 2224              clr R2
 2482 3324              clr R3
 2484 3182              std z+1,R3
 2486 2082              std z+0,R2
 2488                   .dbline 1665
 2488           ;                   }
 2488           L518:
 2488                   .dbline 1662
 2488 4395              inc R20
 248A           L520:
 248A                   .dbline 1662
 248A 4330              cpi R20,3
 248C 88F3              brlo L517
 248E           X219:
 248E                   .dbline 1666
 248E           ;                       }
 248E           L511:
 248E                   .dbline 1667
 248E           ;                   Speed=Speed_tem_z[s_tem];
 248E 80E0              ldi R24,<_Speed_tem_z
 2490 90E0              ldi R25,>_Speed_tem_z
 2492 E0912C02          lds R30,_s_tem
 2496 FF27              clr R31
 2498 E80F              add R30,R24
 249A F91F              adc R31,R25
 249C 2080              ldd R2,z+0
 249E 20920000          sts _Speed,R2
 24A2                   .dbline 1668
 24A2           ;                       for(i=0;i<=2;i++)//对应摆幅变化
 24A2 4427              clr R20
 24A4 16C0              xjmp L524
 24A6           L521:
 24A6                   .dbline 1669
 24A6           ;                          Amplitude_degree[i]=Amplitude_degree_tem[s_tem][i];
 24A6 10912C02          lds R17,_s_tem
 24AA 03E0              ldi R16,3
 24AC 0103              mulsu R16,R17
 24AE 1001              movw R2,R0
 24B0 80E0              ldi R24,<_Amplitude_degree_tem
 24B2 90E0              ldi R25,>_Amplitude_degree_tem
 24B4 280E              add R2,R24
 24B6 391E              adc R3,R25
 24B8 E42F              mov R30,R20
 24BA FF27              clr R31
 24BC E20D              add R30,R2
 24BE F31D              adc R31,R3
 24C0 2080              ldd R2,z+0
 24C2 80E0              ldi R24,<_Amplitude_degree
 24C4 90E0              ldi R25,>_Amplitude_degree
 24C6 E42F              mov R30,R20
 24C8 FF27              clr R31
 24CA E80F              add R30,R24
 24CC F91F              adc R31,R25
 24CE 2082              std z+0,R2
 24D0           L522:
 24D0                   .dbline 1668
 24D0 4395              inc R20
 24D2           L524:
 24D2                   .dbline 1668
 24D2 82E0              ldi R24,2
 24D4 8417              cp R24,R20
 24D6 38F7              brsh L521
 24D8           X220:
 24D8                   .dbline 1671
 24D8           ; //                init_dynamic_offset();
 24D8           ;                }//if(s_change)
 24D8           L507:
 24D8                   .dbline 1673
 24D8           ;                
 24D8           ;                if(d_change)//方向变化,有过渡状态08.01.14
 24D8 20900C02          lds R2,_d_change
 24DC 2220              tst R2
 24DE 09F4              brne X298
 24E0 6BC0              xjmp L525
 24E2           X298:
 24E2           X221:
 24E2                   .dbline 1674
 24E2           ;                {
 24E2                   .dbline 1675
 24E2           ;                        id_change=0;
 24E2 2224              clr R2
 24E4 20921302          sts _id_change,R2
 24E8                   .dbline 1676
 24E8           ;                       id_fan=(FISHID[0]<<5)|(redata_fan&0x0f);
 24E8 80910200          lds R24,_redata_fan
 24EC 8F70              andi R24,15
 24EE 20900A00          lds R2,_FISHID
 24F2 220C              lsl R2
 24F4 220C              lsl R2
 24F6 220C              lsl R2
 24F8 220C              lsl R2
 24FA 220C              lsl R2
 24FC 282A              or R2,R24
 24FE 20920300          sts _id_fan,R2
 2502                   .dbline 1677
 2502           ;                   if((redata_fan>>4)<<4==0xd0)
 2502 80910200          lds R24,_redata_fan
 2506 8295              swap R24
 2508 8F70              andi R24,#0x0F
 250A 8F70              andi R24,#0x0F
 250C 8295              swap R24
 250E 803D              cpi R24,208
 2510 21F4              brne L527
 2512           X222:
 2512                   .dbline 1678
 2512           ;                     id_fan=id_fan|0x10;
 2512 822D              mov R24,R2
 2514 8061              ori R24,16
 2516 80930300          sts _id_fan,R24
 251A           L527:
 251A                   .dbline 1682
 251A           ;                   /////senddata(id_fan);      //前三位用来表示id号，第４位为１时为速度，０为方向，后四位为具体的速度或是方向的值
 251A           ;          
 251A           ;                       // senddata(t_dynamic);////////////////////
 251A           ;                        t_dynamic=0;//过渡状态开始
 251A 2224              clr R2
 251C 20920500          sts _t_dynamic,R2
 2520                   .dbline 1683
 2520           ;                        d_tem=redata&0x0f;//转弯档0-15
 2520 80910200          lds R24,_redata
 2524 8F70              andi R24,15
 2526 80932E02          sts _d_tem,R24
 252A                   .dbline 1684
 252A           ;                        dd_tem=change_dd(d_tem);
 252A 082F              mov R16,R24
 252C 0E94CF06          xcall _change_dd
 2530 A02E              mov R10,R16
 2532 A0922F02          sts _dd_tem,R10
 2536                   .dbline 1685
 2536           ;                        flag=change_flag(d_tem);
 2536 00912E02          lds R16,_d_tem
 253A 0E94E606          xcall _change_flag
 253E A02E              mov R10,R16
 2540 A0923002          sts _flag,R10
 2544                   .dbline 1689
 2544           ;                       // senddata(d_tem);
 2544           ;                       // senddata(dd_tem);
 2544           ;                       // senddata(flag);
 2544           ;                        for(i=0;i<=2;i++)
 2544 4427              clr R20
 2546 2AC0              xjmp L532
 2548           L529:
 2548                   .dbline 1690
 2548           ;                        {
 2548                   .dbline 1691
 2548           ;                               Dynamic_Offset_degree_char[i]=Dynamic_Offset_degree_origin[dd_tem][i];
 2548 10912F02          lds R17,_dd_tem
 254C 03E0              ldi R16,3
 254E 0103              mulsu R16,R17
 2550 1001              movw R2,R0
 2552 80E0              ldi R24,<_Dynamic_Offset_degree_origin
 2554 90E0              ldi R25,>_Dynamic_Offset_degree_origin
 2556 280E              add R2,R24
 2558 391E              adc R3,R25
 255A E42F              mov R30,R20
 255C FF27              clr R31
 255E E20D              add R30,R2
 2560 F31D              adc R31,R3
 2562 2080              ldd R2,z+0
 2564 80E0              ldi R24,<_Dynamic_Offset_degree_char
 2566 90E0              ldi R25,>_Dynamic_Offset_degree_char
 2568 E42F              mov R30,R20
 256A FF27              clr R31
 256C E80F              add R30,R24
 256E F91F              adc R31,R25
 2570 2082              std z+0,R2
 2572                   .dbline 1692
 2572           ;                           Dynamic_Offset_degree[i]=char2int(Dynamic_Offset_degree_char[i],flag);
 2572 20913002          lds R18,_flag
 2576 E42F              mov R30,R20
 2578 FF27              clr R31
 257A E80F              add R30,R24
 257C F91F              adc R31,R25
 257E 0081              ldd R16,z+0
 2580 0E943F04          xcall _char2int
 2584 5801              movw R10,R16
 2586 80E0              ldi R24,<_Dynamic_Offset_degree
 2588 90E0              ldi R25,>_Dynamic_Offset_degree
 258A E42F              mov R30,R20
 258C FF27              clr R31
 258E EE0F              lsl R30
 2590 FF1F              rol R31
 2592 E80F              add R30,R24
 2594 F91F              adc R31,R25
 2596 B182              std z+1,R11
 2598 A082              std z+0,R10
 259A                   .dbline 1693
 259A           ;                    }
 259A           L530:
 259A                   .dbline 1689
 259A 4395              inc R20
 259C           L532:
 259C                   .dbline 1689
 259C 82E0              ldi R24,2
 259E 8417              cp R24,R20
 25A0 98F6              brsh L529
 25A2           X223:
 25A2                   .dbline 1694
 25A2           ;                        init_dynamic_offset();
 25A2 0E949A02          xcall _init_dynamic_offset
 25A6                   .dbline 1695
 25A6           ;                        Speed_dynamic=Speed;
 25A6 20900000          lds R2,_Speed
 25AA 20920600          sts _Speed_dynamic,R2
 25AE                   .dbline 1696
 25AE           ;                        d_change_t=1;
 25AE 81E0              ldi R24,1
 25B0 80930D02          sts _d_change_t,R24
 25B4                   .dbline 1697
 25B4           ;                        d_change_t_v=1; 
 25B4 80930E02          sts _d_change_t_v,R24
 25B8                   .dbline 1699
 25B8           ;                       // senddata(t_dynamic);////////////////////
 25B8           ;                }//if(d_change)
 25B8           L525:
 25B8                   .dbline 1708
 25B8           ;                
 25B8           ; /*             if(a_change)//幅度变化
 25B8           ;                {
 25B8           ;                        tem=redata&0x0f;//幅度档0-15
 25B8           ;                        for(i=0;i<=2;i++)
 25B8           ;                           Amplitude_degree[i]=Amplitude_degree_tem[tem][i];
 25B8           ;                }//if(a_change)
 25B8           ; */             
 25B8           ;                if(t_change)//调直
 25B8 20900F02          lds R2,_t_change
 25BC 2220              tst R2
 25BE 49F1              breq L533
 25C0           X224:
 25C0                   .dbline 1709
 25C0           ;                {
 25C0                   .dbline 1710
 25C0           ;                        id_change=0;
 25C0 2224              clr R2
 25C2 20921302          sts _id_change,R2
 25C6                   .dbline 1711
 25C6           ;                    senddata(FISHID[0]);
 25C6 00910A00          lds R16,_FISHID
 25CA 0E94AB00          xcall _senddata
 25CE                   .dbline 1712
 25CE           ;                        tem=redata&0x07;//关节数,0,1,2
 25CE 60910200          lds R22,_redata
 25D2 6770              andi R22,7
 25D4                   .dbline 1713
 25D4           ;                        if(tem>2)
 25D4 82E0              ldi R24,2
 25D6 8617              cp R24,R22
 25D8 08F4              brsh L535
 25DA           X225:
 25DA                   .dbline 1714
 25DA           ;                        {
 25DA                   .dbline 1715
 25DA           ;                        }//if(tem>2)
 25DA 19C0              xjmp L536
 25DC           L535:
 25DC                   .dbline 1717
 25DC           ;                        else
 25DC           ;                        {
 25DC                   .dbline 1718
 25DC           ;                           if(redata&0x08)//右调直,1度
 25DC 20900200          lds R2,_redata
 25E0 23FE              sbrs R2,3
 25E2 0BC0              rjmp L537
 25E4           X226:
 25E4                   .dbline 1719
 25E4           ;                               {
 25E4                   .dbline 1720
 25E4           ;                                  Static_Offset_degree[tem]++;
 25E4 80E0              ldi R24,<_Static_Offset_degree
 25E6 90E0              ldi R25,>_Static_Offset_degree
 25E8 A62E              mov R10,R22
 25EA BB24              clr R11
 25EC A80E              add R10,R24
 25EE B91E              adc R11,R25
 25F0 F501              movw R30,R10
 25F2 8081              ldd R24,z+0
 25F4 8F5F              subi R24,255    ; addi 1
 25F6 8083              std z+0,R24
 25F8                   .dbline 1721
 25F8           ;                               }//if(redata&0x08)
 25F8 0AC0              xjmp L538
 25FA           L537:
 25FA                   .dbline 1723
 25FA           ;                               else//左调直,1度
 25FA           ;                               {
 25FA                   .dbline 1724
 25FA           ;                                  Static_Offset_degree[tem]--;
 25FA 80E0              ldi R24,<_Static_Offset_degree
 25FC 90E0              ldi R25,>_Static_Offset_degree
 25FE A62E              mov R10,R22
 2600 BB24              clr R11
 2602 A80E              add R10,R24
 2604 B91E              adc R11,R25
 2606 F501              movw R30,R10
 2608 8081              ldd R24,z+0
 260A 8150              subi R24,1
 260C 8083              std z+0,R24
 260E                   .dbline 1725
 260E           ;                               }//if(redata&0x08) else
 260E           L538:
 260E                   .dbline 1726
 260E           ;                        }//if(tem>2) else
 260E           L536:
 260E                   .dbline 1727
 260E           ;                        init_static_offset();
 260E 0E947102          xcall _init_static_offset
 2612                   .dbline 1728
 2612           ;                }//if(t_change)
 2612           L533:
 2612                   .dbline 1730
 2612           ;                
 2612           ;                if(ts_change)//调直是否保存
 2612 20901002          lds R2,_ts_change
 2616 2220              tst R2
 2618 11F1              breq L539
 261A           X227:
 261A                   .dbline 1731
 261A           ;                {
 261A                   .dbline 1732
 261A           ;                        id_change=0;
 261A 2224              clr R2
 261C 20921302          sts _id_change,R2
 2620                   .dbline 1733
 2620           ;                  senddata(FISHID[0]);
 2620 00910A00          lds R16,_FISHID
 2624 0E94AB00          xcall _senddata
 2628                   .dbline 1734
 2628           ;                  if(redata&0x04)//保存
 2628 20900200          lds R2,_redata
 262C 22FE              sbrs R2,2
 262E 0CC0              rjmp L541
 2630           X228:
 2630                   .dbline 1735
 2630           ;                  {
 2630                   .dbline 1736
 2630           ;                      i2c_write(ADD_t,degree_I2C,Static_Offset_degree,3);
 2630 83E0              ldi R24,3
 2632 8A83              std y+2,R24
 2634 80E0              ldi R24,<_Static_Offset_degree
 2636 90E0              ldi R25,>_Static_Offset_degree
 2638 9983              std y+1,R25
 263A 8883              std y+0,R24
 263C 20E0              ldi R18,<_degree_I2C
 263E 30E0              ldi R19,>_degree_I2C
 2640 00E3              ldi R16,48
 2642 0E94F006          xcall _i2c_write
 2646                   .dbline 1737
 2646           ;                  }//if(redata&0x04)
 2646 0BC0              xjmp L542
 2648           L541:
 2648                   .dbline 1739
 2648           ;                  else//不保存
 2648           ;                  {
 2648                   .dbline 1740
 2648           ;                      i2c_read(ADD_t,degree_I2C,Static_Offset_degree,3);                  
 2648 83E0              ldi R24,3
 264A 8A83              std y+2,R24
 264C 80E0              ldi R24,<_Static_Offset_degree
 264E 90E0              ldi R25,>_Static_Offset_degree
 2650 9983              std y+1,R25
 2652 8883              std y+0,R24
 2654 20E0              ldi R18,<_degree_I2C
 2656 30E0              ldi R19,>_degree_I2C
 2658 00E3              ldi R16,48
 265A 0E941607          xcall _i2c_read
 265E                   .dbline 1741
 265E           ;                  }//if(redatat&0x04) else
 265E           L542:
 265E                   .dbline 1742
 265E           ;                }//if(ts_change)
 265E           L539:
 265E                   .dbline 1744
 265E           ;                
 265E           ;                if(id_change==2)//更改鱼id
 265E 80911302          lds R24,_id_change
 2662 8230              cpi R24,2
 2664 D9F4              brne L543
 2666           X229:
 2666                   .dbline 1745
 2666           ;                {
 2666                   .dbline 1746
 2666           ;                        id_change=0;
 2666 2224              clr R2
 2668 20921302          sts _id_change,R2
 266C                   .dbline 1747
 266C           ;             senddata(FISHID[0]);
 266C 00910A00          lds R16,_FISHID
 2670 0E94AB00          xcall _senddata
 2674                   .dbline 1748
 2674           ;                       tem=redata&0x0f;
 2674 60910200          lds R22,_redata
 2678 6F70              andi R22,15
 267A                   .dbline 1749
 267A           ;                   FISHID[0]=tem;
 267A 60930A00          sts _FISHID,R22
 267E                   .dbline 1750
 267E           ;             i2c_write(ADD_i,FISHID_I2C,FISHID,1);
 267E 81E0              ldi R24,1
 2680 8A83              std y+2,R24
 2682 80E0              ldi R24,<_FISHID
 2684 90E0              ldi R25,>_FISHID
 2686 9983              std y+1,R25
 2688 8883              std y+0,R24
 268A 20E0              ldi R18,<_FISHID_I2C
 268C 30E0              ldi R19,>_FISHID_I2C
 268E 00E1              ldi R16,16
 2690 0E94F006          xcall _i2c_write
 2694                   .dbline 1751
 2694           ;                       senddata(FISHID[0]);
 2694 00910A00          lds R16,_FISHID
 2698 0E94AB00          xcall _senddata
 269C                   .dbline 1752
 269C           ;                }//if(id_change)
 269C           L543:
 269C                   .dbline 1754
 269C           ;                
 269C           ;                if(f_change)//更改频率
 269C 20901202          lds R2,_f_change
 26A0 2220              tst R2
 26A2 09F4              brne X299
 26A4 8CC0              xjmp L545
 26A6           X299:
 26A6           X230:
 26A6                   .dbline 1755
 26A6           ;                {
 26A6                   .dbline 1756
 26A6           ;                        id_change=0;
 26A6 2224              clr R2
 26A8 20921302          sts _id_change,R2
 26AC                   .dbline 1758
 26AC           ; 
 26AC           ;                   if(redata_tem==0x41)//频率1
 26AC 80910100          lds R24,_redata_tem
 26B0 8134              cpi R24,65
 26B2 99F4              brne L547
 26B4           X231:
 26B4                   .dbline 1759
 26B4           ;                       {
 26B4                   .dbline 1760
 26B4           ;                         PORTD=PORTD&0xf4;
 26B4 82B3              in R24,0x12
 26B6 847F              andi R24,244
 26B8 82BB              out 0x12,R24
 26BA                   .dbline 1761
 26BA           ;                         senddata(0xaa);//0xfc
 26BA 0AEA              ldi R16,170
 26BC 0E94AB00          xcall _senddata
 26C0                   .dbline 1762
 26C0           ;                         senddata(0x49);
 26C0 09E4              ldi R16,73
 26C2 0E94AB00          xcall _senddata
 26C6                   .dbline 1763
 26C6           ;                         senddata(0xff);
 26C6 0FEF              ldi R16,255
 26C8 0E94AB00          xcall _senddata
 26CC                   .dbline 1764
 26CC           ;                         senddata(0x02);
 26CC 02E0              ldi R16,2
 26CE 0E94AB00          xcall _senddata
 26D2                   .dbline 1765
 26D2           ;                         senddata(0xbb);
 26D2 0BEB              ldi R16,187
 26D4 0E94AB00          xcall _senddata
 26D8                   .dbline 1766
 26D8           ;                       }
 26D8 72C0              xjmp L548
 26DA           L547:
 26DA                   .dbline 1767
 26DA           ;                       else if(redata_tem==0x42)//频率2
 26DA 80910100          lds R24,_redata_tem
 26DE 8234              cpi R24,66
 26E0 99F4              brne L549
 26E2           X232:
 26E2                   .dbline 1768
 26E2           ;                       {
 26E2                   .dbline 1769
 26E2           ;                         PORTD=PORTD&0xf4;
 26E2 82B3              in R24,0x12
 26E4 847F              andi R24,244
 26E6 82BB              out 0x12,R24
 26E8                   .dbline 1770
 26E8           ;                         senddata(0xaa);//0xfc
 26E8 0AEA              ldi R16,170
 26EA 0E94AB00          xcall _senddata
 26EE                   .dbline 1771
 26EE           ;                         senddata(0x49);
 26EE 09E4              ldi R16,73
 26F0 0E94AB00          xcall _senddata
 26F4                   .dbline 1772
 26F4           ;                         senddata(0xff);
 26F4 0FEF              ldi R16,255
 26F6 0E94AB00          xcall _senddata
 26FA                   .dbline 1773
 26FA           ;                         senddata(0x16);
 26FA 06E1              ldi R16,22
 26FC 0E94AB00          xcall _senddata
 2700                   .dbline 1774
 2700           ;                         senddata(0xbb);
 2700 0BEB              ldi R16,187
 2702 0E94AB00          xcall _senddata
 2706                   .dbline 1775
 2706           ;                       }
 2706 5BC0              xjmp L550
 2708           L549:
 2708                   .dbline 1776
 2708           ;                       else if(redata_tem==0x43)//频率3
 2708 80910100          lds R24,_redata_tem
 270C 8334              cpi R24,67
 270E 99F4              brne L551
 2710           X233:
 2710                   .dbline 1777
 2710           ;                       {
 2710                   .dbline 1778
 2710           ;                         PORTD=PORTD&0xf4;
 2710 82B3              in R24,0x12
 2712 847F              andi R24,244
 2714 82BB              out 0x12,R24
 2716                   .dbline 1779
 2716           ;                         senddata(0xaa);//0xfc
 2716 0AEA              ldi R16,170
 2718 0E94AB00          xcall _senddata
 271C                   .dbline 1780
 271C           ;                         senddata(0x49);
 271C 09E4              ldi R16,73
 271E 0E94AB00          xcall _senddata
 2722                   .dbline 1781
 2722           ;                         senddata(0xff);
 2722 0FEF              ldi R16,255
 2724 0E94AB00          xcall _senddata
 2728                   .dbline 1782
 2728           ;                         senddata(0x2A);
 2728 0AE2              ldi R16,42
 272A 0E94AB00          xcall _senddata
 272E                   .dbline 1783
 272E           ;                         senddata(0xbb);
 272E 0BEB              ldi R16,187
 2730 0E94AB00          xcall _senddata
 2734                   .dbline 1784
 2734           ;                       }
 2734 44C0              xjmp L552
 2736           L551:
 2736                   .dbline 1785
 2736           ;                       else if(redata_tem==0x44)//频率4
 2736 80910100          lds R24,_redata_tem
 273A 8434              cpi R24,68
 273C 99F4              brne L553
 273E           X234:
 273E                   .dbline 1786
 273E           ;                       {
 273E                   .dbline 1787
 273E           ;                         PORTD=PORTD&0xf4;
 273E 82B3              in R24,0x12
 2740 847F              andi R24,244
 2742 82BB              out 0x12,R24
 2744                   .dbline 1788
 2744           ;                         senddata(0xaa);//0xfc
 2744 0AEA              ldi R16,170
 2746 0E94AB00          xcall _senddata
 274A                   .dbline 1789
 274A           ;                         senddata(0x49);
 274A 09E4              ldi R16,73
 274C 0E94AB00          xcall _senddata
 2750                   .dbline 1790
 2750           ;                         senddata(0xff);
 2750 0FEF              ldi R16,255
 2752 0E94AB00          xcall _senddata
 2756                   .dbline 1791
 2756           ;                         senddata(0x3B);
 2756 0BE3              ldi R16,59
 2758 0E94AB00          xcall _senddata
 275C                   .dbline 1792
 275C           ;                         senddata(0xbb);
 275C 0BEB              ldi R16,187
 275E 0E94AB00          xcall _senddata
 2762                   .dbline 1793
 2762           ;                       }
 2762 2DC0              xjmp L554
 2764           L553:
 2764                   .dbline 1794
 2764           ;                       else if(redata_tem==0x45)//频率5
 2764 80910100          lds R24,_redata_tem
 2768 8534              cpi R24,69
 276A 99F4              brne L555
 276C           X235:
 276C                   .dbline 1795
 276C           ;                       {
 276C                   .dbline 1796
 276C           ;                         PORTD=PORTD&0xf4;
 276C 82B3              in R24,0x12
 276E 847F              andi R24,244
 2770 82BB              out 0x12,R24
 2772                   .dbline 1797
 2772           ;                         senddata(0xaa);//0xfc
 2772 0AEA              ldi R16,170
 2774 0E94AB00          xcall _senddata
 2778                   .dbline 1798
 2778           ;                         senddata(0x49);
 2778 09E4              ldi R16,73
 277A 0E94AB00          xcall _senddata
 277E                   .dbline 1799
 277E           ;                         senddata(0xff);
 277E 0FEF              ldi R16,255
 2780 0E94AB00          xcall _senddata
 2784                   .dbline 1800
 2784           ;                         senddata(0x33);
 2784 03E3              ldi R16,51
 2786 0E94AB00          xcall _senddata
 278A                   .dbline 1801
 278A           ;                         senddata(0xbb);
 278A 0BEB              ldi R16,187
 278C 0E94AB00          xcall _senddata
 2790                   .dbline 1802
 2790           ;                       }
 2790 16C0              xjmp L556
 2792           L555:
 2792                   .dbline 1803
 2792           ;                       else if(redata_tem==0x46)//频率6
 2792 80910100          lds R24,_redata_tem
 2796 8634              cpi R24,70
 2798 91F4              brne L557
 279A           X236:
 279A                   .dbline 1804
 279A           ;                       {
 279A                   .dbline 1805
 279A           ;                         PORTD=PORTD&0xf4;
 279A 82B3              in R24,0x12
 279C 847F              andi R24,244
 279E 82BB              out 0x12,R24
 27A0                   .dbline 1806
 27A0           ;                         senddata(0xaa);//0xfc
 27A0 0AEA              ldi R16,170
 27A2 0E94AB00          xcall _senddata
 27A6                   .dbline 1807
 27A6           ;                         senddata(0x49);
 27A6 09E4              ldi R16,73
 27A8 0E94AB00          xcall _senddata
 27AC                   .dbline 1808
 27AC           ;                         senddata(0xff);
 27AC 0FEF              ldi R16,255
 27AE 0E94AB00          xcall _senddata
 27B2                   .dbline 1809
 27B2           ;                         senddata(0x0c);
 27B2 0CE0              ldi R16,12
 27B4 0E94AB00          xcall _senddata
 27B8                   .dbline 1810
 27B8           ;                         senddata(0xbb);
 27B8 0BEB              ldi R16,187
 27BA 0E94AB00          xcall _senddata
 27BE                   .dbline 1811
 27BE           ;                       }
 27BE           L557:
 27BE           L556:
 27BE           L554:
 27BE           L552:
 27BE           L550:
 27BE           L548:
 27BE                   .dbline 1819
 27BE           ;                       
 27BE           ;                       //senddata(FISHID[0]);
 27BE           ;                       //senddata(PORTD&0xf7);//0xf4
 27BE           ;                                               //tem=redata&0x07-4;//0x44-0x47,频率1-4,tem(0-3)
 27BE           ;                   //freqs[0]=tem;
 27BE           ;                  // PORTD=freq[freqs[0]];
 27BE           ;            // i2c_write(ADD_f,freqs_I2C,freqs,1);
 27BE           ;                }//if(f_change)                
 27BE           L545:
 27BE                   .dbline 1822
 27BE           ;       
 27BE           ;          //清零所有标志位,id_change在以上if(id_change)之外的if(*_change)中清零
 27BE           ;            isSrlStart=0;
 27BE 2224              clr R2
 27C0 20920702          sts _isSrlStart,R2
 27C4                   .dbline 1823
 27C4           ;            addr=0;
 27C4 20920902          sts _addr,R2
 27C8                   .dbline 1824
 27C8           ;                isInstruction=0;
 27C8 20921702          sts _isInstruction,R2
 27CC                   .dbline 1825
 27CC           ;            s_change=0;
 27CC 20920B02          sts _s_change,R2
 27D0                   .dbline 1826
 27D0           ;                a_change=0;
 27D0 20921102          sts _a_change,R2
 27D4                   .dbline 1827
 27D4           ;            d_change=0;
 27D4 20920C02          sts _d_change,R2
 27D8                   .dbline 1828
 27D8           ;            t_change=0;
 27D8 20920F02          sts _t_change,R2
 27DC                   .dbline 1829
 27DC           ;            ts_change=0;
 27DC 20921002          sts _ts_change,R2
 27E0                   .dbline 1831
 27E0           ;            //id_change=0;
 27E0           ;            f_change=0;
 27E0 20921202          sts _f_change,R2
 27E4                   .dbline 1832
 27E4           ;            e_change=0;
 27E4 20921402          sts _e_change,R2
 27E8                   .dbline 1833
 27E8           ;               }//if(e_change)
 27E8           L505:
 27E8                   .dbline 1835
 27E8           ;          
 27E8           ;          if(m_change)//更改模态，m_tem模态码
 27E8 20901A02          lds R2,_m_change
 27EC 2220              tst R2
 27EE 09F4              brne X300
 27F0 EEC0              xjmp L559
 27F2           X300:
 27F2           X237:
 27F2                   .dbline 1836
 27F2           ;          {
 27F2                   .dbline 1837
 27F2           ;            m_cishu--;//若++第一次反应慢
 27F2 80911B02          lds R24,_m_cishu
 27F6 8150              subi R24,1
 27F8 80931B02          sts _m_cishu,R24
 27FC                   .dbline 1838
 27FC           ;            if(m_cishu==0xff)
 27FC 8F3F              cpi R24,255
 27FE 09F0              breq X301
 2800 E6C0              xjmp L561
 2802           X301:
 2802           X238:
 2802                   .dbline 1839
 2802           ;            {
 2802                   .dbline 1840
 2802           ;                  mm_cishu--;//若++第一次反应慢
 2802 80911C02          lds R24,_mm_cishu
 2806 8150              subi R24,1
 2808 80931C02          sts _mm_cishu,R24
 280C                   .dbline 1841
 280C           ;                  if(mm_cishu==0xff)
 280C 8F3F              cpi R24,255
 280E 09F0              breq X302
 2810 DEC0              xjmp L563
 2812           X302:
 2812           X239:
 2812                   .dbline 1842
 2812           ;                  {
 2812                   .dbline 1843
 2812           ;                        mmm_cishu++;
 2812 80911D02          lds R24,_mmm_cishu
 2816 8F5F              subi R24,255    ; addi 1
 2818 80931D02          sts _mmm_cishu,R24
 281C                   .dbline 1844
 281C           ;                        if(mmm_cishu==m_time)
 281C 8031              cpi R24,16
 281E 09F0              breq X303
 2820 D6C0              xjmp L565
 2822           X303:
 2822           X240:
 2822                   .dbline 1845
 2822           ;                        {
 2822                   .dbline 1846
 2822           ;                    mmm_cishu=0;
 2822 2224              clr R2
 2824 20921D02          sts _mmm_cishu,R2
 2828                   .dbline 1848
 2828           ;                        //执行代码
 2828           ;                        cishu++;
 2828 80912102          lds R24,_cishu
 282C 8F5F              subi R24,255    ; addi 1
 282E 80932102          sts _cishu,R24
 2832                   .dbline 1849
 2832           ;                        if(cishu==3)
 2832 8330              cpi R24,3
 2834 11F4              brne L567
 2836           X241:
 2836                   .dbline 1850
 2836           ;                        {
 2836                   .dbline 1851
 2836           ;                         cishu=0;
 2836 20922102          sts _cishu,R2
 283A                   .dbline 1852
 283A           ;                        }//if(cishu==3)
 283A           L567:
 283A                   .dbline 1853
 283A           ;                        switch(m_tem&0x0f)
 283A 60912D02          lds R22,_m_tem
 283E 7727              clr R23
 2840 6F70              andi R22,15
 2842 7070              andi R23,0
 2844 6130              cpi R22,1
 2846 E0E0              ldi R30,0
 2848 7E07              cpc R23,R30
 284A 31F0              breq L572
 284C           X242:
 284C 6230              cpi R22,2
 284E E0E0              ldi R30,0
 2850 7E07              cpc R23,R30
 2852 09F4              brne X304
 2854 5EC0              xjmp L594
 2856           X304:
 2856           X243:
 2856 BBC0              xjmp L569
 2858           L572:
 2858                   .dbline 1856
 2858           ;                        {
 2858           ;                        case 0x01://模态1
 2858           ;                                          switch(cishu)
 2858 60912102          lds R22,_cishu
 285C 7727              clr R23
 285E 6030              cpi R22,0
 2860 6707              cpc R22,R23
 2862 51F0              breq L576
 2864           X244:
 2864 6130              cpi R22,1
 2866 E0E0              ldi R30,0
 2868 7E07              cpc R23,R30
 286A F9F0              breq L582
 286C           X245:
 286C 6230              cpi R22,2
 286E E0E0              ldi R30,0
 2870 7E07              cpc R23,R30
 2872 09F4              brne X305
 2874 33C0              xjmp L588
 2876           X305:
 2876           X246:
 2876 ABC0              xjmp L570
 2878           L576:
 2878                   .dbline 1859
 2878           ;                                          {
 2878           ;                                          case 0x00://0,低速1
 2878           ;                                                    Speed=Speed_tem_z[1];
 2878 20905200          lds R2,_Speed_tem_z+1
 287C 20920000          sts _Speed,R2
 2880                   .dbline 1860
 2880           ;                                        for(i=0;i<=2;i++)                
 2880 4427              clr R20
 2882 0DC0              xjmp L581
 2884           L578:
 2884                   .dbline 1861
 2884           ;                                           Dynamic_Offset_degree [i]=0;
 2884 80E0              ldi R24,<_Dynamic_Offset_degree
 2886 90E0              ldi R25,>_Dynamic_Offset_degree
 2888 E42F              mov R30,R20
 288A FF27              clr R31
 288C EE0F              lsl R30
 288E FF1F              rol R31
 2890 E80F              add R30,R24
 2892 F91F              adc R31,R25
 2894 2224              clr R2
 2896 3324              clr R3
 2898 3182              std z+1,R3
 289A 2082              std z+0,R2
 289C           L579:
 289C                   .dbline 1860
 289C 4395              inc R20
 289E           L581:
 289E                   .dbline 1860
 289E 82E0              ldi R24,2
 28A0 8417              cp R24,R20
 28A2 80F7              brsh L578
 28A4           X247:
 28A4                   .dbline 1862
 28A4           ;                                        init_dynamic_offset();
 28A4 0E949A02          xcall _init_dynamic_offset
 28A8                   .dbline 1864
 28A8           ;                                                                
 28A8           ;                                                                break;//0
 28A8 92C0              xjmp L570
 28AA           L582:
 28AA                   .dbline 1866
 28AA           ;                                          case 0x01://1，高速15
 28AA           ;                                                                Speed=Speed_tem_z[15];
 28AA 20906000          lds R2,_Speed_tem_z+15
 28AE 20920000          sts _Speed,R2
 28B2                   .dbline 1867
 28B2           ;                                                                for(i=0;i<=2;i++)
 28B2 4427              clr R20
 28B4 0DC0              xjmp L587
 28B6           L584:
 28B6                   .dbline 1868
 28B6           ;                                                                   Dynamic_Offset_degree [i]=0;
 28B6 80E0              ldi R24,<_Dynamic_Offset_degree
 28B8 90E0              ldi R25,>_Dynamic_Offset_degree
 28BA E42F              mov R30,R20
 28BC FF27              clr R31
 28BE EE0F              lsl R30
 28C0 FF1F              rol R31
 28C2 E80F              add R30,R24
 28C4 F91F              adc R31,R25
 28C6 2224              clr R2
 28C8 3324              clr R3
 28CA 3182              std z+1,R3
 28CC 2082              std z+0,R2
 28CE           L585:
 28CE                   .dbline 1867
 28CE 4395              inc R20
 28D0           L587:
 28D0                   .dbline 1867
 28D0 82E0              ldi R24,2
 28D2 8417              cp R24,R20
 28D4 80F7              brsh L584
 28D6           X248:
 28D6                   .dbline 1869
 28D6           ;                                                                init_dynamic_offset();
 28D6 0E949A02          xcall _init_dynamic_offset
 28DA                   .dbline 1870
 28DA           ;                                                                break;//1  
 28DA 79C0              xjmp L570
 28DC           L588:
 28DC                   .dbline 1872
 28DC           ;                                          case 0x02://2，转弯1
 28DC           ;                                            for(i=0;i<=2;i++)  
 28DC 4427              clr R20
 28DE 13C0              xjmp L592
 28E0           L589:
 28E0                   .dbline 1873
 28E0           ;                                                  Dynamic_Offset_degree [i]=Dynamic_Offset_degree_origin [1][i];
 28E0 80E0              ldi R24,<_Dynamic_Offset_degree_origin+3
 28E2 90E0              ldi R25,>_Dynamic_Offset_degree_origin+3
 28E4 E42F              mov R30,R20
 28E6 FF27              clr R31
 28E8 E80F              add R30,R24
 28EA F91F              adc R31,R25
 28EC 2080              ldd R2,z+0
 28EE 3324              clr R3
 28F0 80E0              ldi R24,<_Dynamic_Offset_degree
 28F2 90E0              ldi R25,>_Dynamic_Offset_degree
 28F4 E42F              mov R30,R20
 28F6 FF27              clr R31
 28F8 EE0F              lsl R30
 28FA FF1F              rol R31
 28FC E80F              add R30,R24
 28FE F91F              adc R31,R25
 2900 3182              std z+1,R3
 2902 2082              std z+0,R2
 2904           L590:
 2904                   .dbline 1872
 2904 4395              inc R20
 2906           L592:
 2906                   .dbline 1872
 2906 82E0              ldi R24,2
 2908 8417              cp R24,R20
 290A 50F7              brsh L589
 290C           X249:
 290C                   .dbline 1874
 290C           ;                                        init_dynamic_offset(); 
 290C 0E949A02          xcall _init_dynamic_offset
 2910                   .dbline 1875
 2910           ;                                                    break;//2
 2910                   .dbline 1877
 2910           ;                                          }//switch(cishu)
 2910           ;                                  break;//case模态1
 2910 5EC0              xjmp L570
 2912           L594:
 2912                   .dbline 1879
 2912           ;                    case 0x02://模态2
 2912           ;                                          switch(cishu)
 2912 60912102          lds R22,_cishu
 2916 7727              clr R23
 2918 6030              cpi R22,0
 291A 6707              cpc R22,R23
 291C 51F0              breq L598
 291E           X250:
 291E 6130              cpi R22,1
 2920 E0E0              ldi R30,0
 2922 7E07              cpc R23,R30
 2924 09F1              breq L604
 2926           X251:
 2926 6230              cpi R22,2
 2928 E0E0              ldi R30,0
 292A 7E07              cpc R23,R30
 292C 09F4              brne X306
 292E 37C0              xjmp L610
 2930           X306:
 2930           X252:
 2930 4EC0              xjmp L570
 2932           L598:
 2932                   .dbline 1882
 2932           ;                                          {
 2932           ;                                          case 0x00://0，左转1
 2932           ;                                            for(i=0;i<=2;i++)
 2932 4427              clr R20
 2934 13C0              xjmp L602
 2936           L599:
 2936                   .dbline 1883
 2936           ;                                                  Dynamic_Offset_degree [i]=Dynamic_Offset_degree_origin [1][i];
 2936 80E0              ldi R24,<_Dynamic_Offset_degree_origin+3
 2938 90E0              ldi R25,>_Dynamic_Offset_degree_origin+3
 293A E42F              mov R30,R20
 293C FF27              clr R31
 293E E80F              add R30,R24
 2940 F91F              adc R31,R25
 2942 2080              ldd R2,z+0
 2944 3324              clr R3
 2946 80E0              ldi R24,<_Dynamic_Offset_degree
 2948 90E0              ldi R25,>_Dynamic_Offset_degree
 294A E42F              mov R30,R20
 294C FF27              clr R31
 294E EE0F              lsl R30
 2950 FF1F              rol R31
 2952 E80F              add R30,R24
 2954 F91F              adc R31,R25
 2956 3182              std z+1,R3
 2958 2082              std z+0,R2
 295A           L600:
 295A                   .dbline 1882
 295A 4395              inc R20
 295C           L602:
 295C                   .dbline 1882
 295C 82E0              ldi R24,2
 295E 8417              cp R24,R20
 2960 50F7              brsh L599
 2962           X253:
 2962                   .dbline 1884
 2962           ;                                        init_dynamic_offset(); 
 2962 0E949A02          xcall _init_dynamic_offset
 2966                   .dbline 1885
 2966           ;                                                        break;//0
 2966 33C0              xjmp L570
 2968           L604:
 2968                   .dbline 1887
 2968           ;                                          case 0x01://1，右转12
 2968           ;                                            for(i=0;i<=2;i++)
 2968 4427              clr R20
 296A 13C0              xjmp L608
 296C           L605:
 296C                   .dbline 1888
 296C           ;                                                  Dynamic_Offset_degree [i]=Dynamic_Offset_degree_origin [12][i];
 296C 80E0              ldi R24,<_Dynamic_Offset_degree_origin+36
 296E 90E0              ldi R25,>_Dynamic_Offset_degree_origin+36
 2970 E42F              mov R30,R20
 2972 FF27              clr R31
 2974 E80F              add R30,R24
 2976 F91F              adc R31,R25
 2978 2080              ldd R2,z+0
 297A 3324              clr R3
 297C 80E0              ldi R24,<_Dynamic_Offset_degree
 297E 90E0              ldi R25,>_Dynamic_Offset_degree
 2980 E42F              mov R30,R20
 2982 FF27              clr R31
 2984 EE0F              lsl R30
 2986 FF1F              rol R31
 2988 E80F              add R30,R24
 298A F91F              adc R31,R25
 298C 3182              std z+1,R3
 298E 2082              std z+0,R2
 2990           L606:
 2990                   .dbline 1887
 2990 4395              inc R20
 2992           L608:
 2992                   .dbline 1887
 2992 82E0              ldi R24,2
 2994 8417              cp R24,R20
 2996 50F7              brsh L605
 2998           X254:
 2998                   .dbline 1889
 2998           ;                                        init_dynamic_offset(); 
 2998 0E949A02          xcall _init_dynamic_offset
 299C                   .dbline 1890
 299C           ;                                                                break;//1
 299C 18C0              xjmp L570
 299E           L610:
 299E                   .dbline 1892
 299E           ;                                          case 0x02://2，前进12
 299E           ;                                                                Speed=Speed_tem_z[12];
 299E 20905D00          lds R2,_Speed_tem_z+12
 29A2 20920000          sts _Speed,R2
 29A6                   .dbline 1893
 29A6           ;                                                                for(i=0;i<=2;i++)
 29A6 4427              clr R20
 29A8 0DC0              xjmp L615
 29AA           L612:
 29AA                   .dbline 1894
 29AA           ;                                                                   Dynamic_Offset_degree [i]=0;
 29AA 80E0              ldi R24,<_Dynamic_Offset_degree
 29AC 90E0              ldi R25,>_Dynamic_Offset_degree
 29AE E42F              mov R30,R20
 29B0 FF27              clr R31
 29B2 EE0F              lsl R30
 29B4 FF1F              rol R31
 29B6 E80F              add R30,R24
 29B8 F91F              adc R31,R25
 29BA 2224              clr R2
 29BC 3324              clr R3
 29BE 3182              std z+1,R3
 29C0 2082              std z+0,R2
 29C2           L613:
 29C2                   .dbline 1893
 29C2 4395              inc R20
 29C4           L615:
 29C4                   .dbline 1893
 29C4 82E0              ldi R24,2
 29C6 8417              cp R24,R20
 29C8 80F7              brsh L612
 29CA           X255:
 29CA                   .dbline 1895
 29CA           ;                                                                init_dynamic_offset();                                              
 29CA 0E949A02          xcall _init_dynamic_offset
 29CE                   .dbline 1896
 29CE           ;                                                                break;//2
 29CE                   .dbline 1898
 29CE           ;                                          }//switch(cishu)                                
 29CE           ;                                  break;//case模态2
 29CE           L569:
 29CE           L570:
 29CE                   .dbline 1901
 29CE           ;                        }//switch(m_tem)
 29CE           ;                        //代码结束
 29CE           ;                        }//if(mmm_cishu)
 29CE           L565:
 29CE                   .dbline 1902
 29CE           ;                  }//if(mm_cishu)                 
 29CE           L563:
 29CE                   .dbline 1903
 29CE           ;                }//if(m_cishu)...延时作用
 29CE           L561:
 29CE                   .dbline 1904
 29CE           ;        }//if(m_change)
 29CE           L559:
 29CE                   .dbline 1906
 29CE           ;          
 29CE           ;               if(y_change)//原始转弯模式
 29CE 20902302          lds R2,_y_change
 29D2 2220              tst R2
 29D4 09F4              brne X307
 29D6 E0C1              xjmp L472
 29D8           X307:
 29D8           X256:
 29D8                   .dbline 1907
 29D8           ;               {
 29D8                   .dbline 1908
 29D8           ;                       y_cishu--;
 29D8 80912602          lds R24,_y_cishu
 29DC 8150              subi R24,1
 29DE 80932602          sts _y_cishu,R24
 29E2                   .dbline 1909
 29E2           ;                       if(y_cishu==0xff)
 29E2 8F3F              cpi R24,255
 29E4 09F0              breq X308
 29E6 D8C1              xjmp L472
 29E8           X308:
 29E8           X257:
 29E8                   .dbline 1910
 29E8           ;                       {
 29E8                   .dbline 1911
 29E8           ;                               yy_cishu--;
 29E8 80912702          lds R24,_yy_cishu
 29EC 8150              subi R24,1
 29EE 80932702          sts _yy_cishu,R24
 29F2                   .dbline 1913
 29F2           ; 
 29F2           ;                               if(yy_cishu==0xff)
 29F2 8F3F              cpi R24,255
 29F4 09F0              breq X309
 29F6 D0C1              xjmp L472
 29F8           X309:
 29F8           X258:
 29F8                   .dbline 1914
 29F8           ;                               {
 29F8                   .dbline 1915
 29F8           ;                                       yyy_cishu++;
 29F8 80912802          lds R24,_yyy_cishu
 29FC 8F5F              subi R24,255    ; addi 1
 29FE 80932802          sts _yyy_cishu,R24
 2A02                   .dbline 1916
 2A02           ;                                       yy_cishu=yy_time;
 2A02 20902502          lds R2,_yy_time
 2A06 20922702          sts _yy_cishu,R2
 2A0A                   .dbline 1918
 2A0A           ; 
 2A0A           ;                                       if(yyy_cishu==y_time)
 2A0A 8230              cpi R24,2
 2A0C 09F0              breq X310
 2A0E C4C1              xjmp L472
 2A10           X310:
 2A10           X259:
 2A10                   .dbline 1919
 2A10           ;                                       {
 2A10                   .dbline 1920
 2A10           ;                                               yyy_cishu=0;
 2A10 2224              clr R2
 2A12 20922802          sts _yyy_cishu,R2
 2A16                   .dbline 1923
 2A16           ; 
 2A16           ;                                               //执行代码
 2A16           ;                                               if(cishu_y==1)//回到收到命令前的速度，直游
 2A16 80912902          lds R24,_cishu_y
 2A1A 8130              cpi R24,1
 2A1C 09F0              breq X311
 2A1E 37C0              xjmp L624
 2A20           X311:
 2A20           X260:
 2A20                   .dbline 1924
 2A20           ;                                               {
 2A20                   .dbline 1925
 2A20           ;                                                       y_change=0;
 2A20 20922302          sts _y_change,R2
 2A24                   .dbline 1926
 2A24           ;                                                       y_changing=0;
 2A24 20922402          sts _y_changing,R2
 2A28                   .dbline 1927
 2A28           ;                                                       Speed=y_speed;
 2A28 20902B02          lds R2,_y_speed
 2A2C 20920000          sts _Speed,R2
 2A30                   .dbline 1928
 2A30           ;                                                       for(i=0;i<=2;i++)                 
 2A30 4427              clr R20
 2A32 0DC0              xjmp L629
 2A34           L626:
 2A34                   .dbline 1929
 2A34           ;                                                               Dynamic_Offset_degree [i]=0;
 2A34 80E0              ldi R24,<_Dynamic_Offset_degree
 2A36 90E0              ldi R25,>_Dynamic_Offset_degree
 2A38 E42F              mov R30,R20
 2A3A FF27              clr R31
 2A3C EE0F              lsl R30
 2A3E FF1F              rol R31
 2A40 E80F              add R30,R24
 2A42 F91F              adc R31,R25
 2A44 2224              clr R2
 2A46 3324              clr R3
 2A48 3182              std z+1,R3
 2A4A 2082              std z+0,R2
 2A4C           L627:
 2A4C                   .dbline 1928
 2A4C 4395              inc R20
 2A4E           L629:
 2A4E                   .dbline 1928
 2A4E 82E0              ldi R24,2
 2A50 8417              cp R24,R20
 2A52 80F7              brsh L626
 2A54           X261:
 2A54                   .dbline 1930
 2A54           ;                                                       for(i=0;i<=2;i++)//对应摆幅变化
 2A54 4427              clr R20
 2A56 16C0              xjmp L633
 2A58           L630:
 2A58                   .dbline 1931
 2A58           ;                                                               Amplitude_degree[i]=Amplitude_degree_tem[s_tem][i];
 2A58 10912C02          lds R17,_s_tem
 2A5C 03E0              ldi R16,3
 2A5E 0103              mulsu R16,R17
 2A60 1001              movw R2,R0
 2A62 80E0              ldi R24,<_Amplitude_degree_tem
 2A64 90E0              ldi R25,>_Amplitude_degree_tem
 2A66 280E              add R2,R24
 2A68 391E              adc R3,R25
 2A6A E42F              mov R30,R20
 2A6C FF27              clr R31
 2A6E E20D              add R30,R2
 2A70 F31D              adc R31,R3
 2A72 2080              ldd R2,z+0
 2A74 80E0              ldi R24,<_Amplitude_degree
 2A76 90E0              ldi R25,>_Amplitude_degree
 2A78 E42F              mov R30,R20
 2A7A FF27              clr R31
 2A7C E80F              add R30,R24
 2A7E F91F              adc R31,R25
 2A80 2082              std z+0,R2
 2A82           L631:
 2A82                   .dbline 1930
 2A82 4395              inc R20
 2A84           L633:
 2A84                   .dbline 1930
 2A84 82E0              ldi R24,2
 2A86 8417              cp R24,R20
 2A88 38F7              brsh L630
 2A8A           X262:
 2A8A                   .dbline 1932
 2A8A           ;                                                       init_dynamic_offset();
 2A8A 0E949A02          xcall _init_dynamic_offset
 2A8E                   .dbline 1933
 2A8E           ;                                               }//if(cishu_y==1)
 2A8E           L624:
 2A8E                   .dbline 1935
 2A8E           ; 
 2A8E           ;                                               if(cishu_y==0)
 2A8E 20902902          lds R2,_cishu_y
 2A92 2220              tst R2
 2A94 09F0              breq X312
 2A96 80C1              xjmp L472
 2A98           X312:
 2A98           X263:
 2A98                   .dbline 1936
 2A98           ;                                               {
 2A98                   .dbline 1937
 2A98           ;                                                       cishu_y++;
 2A98 822D              mov R24,R2
 2A9A 8F5F              subi R24,255    ; addi 1
 2A9C 80932902          sts _cishu_y,R24
 2AA0                   .dbline 1938
 2AA0           ;                                                       tem_y=y_tem&0x0f;
 2AA0 60912A02          lds R22,_y_tem
 2AA4 6F70              andi R22,15
 2AA6                   .dbline 1939
 2AA6           ;                                                       Speed=0;
 2AA6 2224              clr R2
 2AA8 20920000          sts _Speed,R2
 2AAC                   .dbline 1940
 2AAC           ;                                                       for(i=0;i<=2;i++)
 2AAC 4427              clr R20
 2AAE 19C0              xjmp L639
 2AB0           L636:
 2AB0                   .dbline 1941
 2AB0           ;                                                               Dynamic_Offset_degree [i]=Dynamic_Offset_degree_y [tem_y][i];
 2AB0 A42E              mov R10,R20
 2AB2 BB24              clr R11
 2AB4 AA0C              lsl R10
 2AB6 BB1C              rol R11
 2AB8 06E0              ldi R16,6
 2ABA 162F              mov R17,R22
 2ABC 0103              mulsu R16,R17
 2ABE 1001              movw R2,R0
 2AC0 80E0              ldi R24,<_Dynamic_Offset_degree_y
 2AC2 90E0              ldi R25,>_Dynamic_Offset_degree_y
 2AC4 280E              add R2,R24
 2AC6 391E              adc R3,R25
 2AC8 F501              movw R30,R10
 2ACA E20D              add R30,R2
 2ACC F31D              adc R31,R3
 2ACE 2080              ldd R2,z+0
 2AD0 3180              ldd R3,z+1
 2AD2 80E0              ldi R24,<_Dynamic_Offset_degree
 2AD4 90E0              ldi R25,>_Dynamic_Offset_degree
 2AD6 F501              movw R30,R10
 2AD8 E80F              add R30,R24
 2ADA F91F              adc R31,R25
 2ADC 3182              std z+1,R3
 2ADE 2082              std z+0,R2
 2AE0           L637:
 2AE0                   .dbline 1940
 2AE0 4395              inc R20
 2AE2           L639:
 2AE2                   .dbline 1940
 2AE2 82E0              ldi R24,2
 2AE4 8417              cp R24,R20
 2AE6 20F7              brsh L636
 2AE8           X264:
 2AE8                   .dbline 1942
 2AE8           ;                                                       init_dynamic_offset();                   
 2AE8 0E949A02          xcall _init_dynamic_offset
 2AEC                   .dbline 1943
 2AEC           ;                                               }//if(cishu_y==0)
 2AEC                   .dbline 1946
 2AEC           ;                                               //代码结束
 2AEC           ; 
 2AEC           ;                                       }//if(yyy_cishu)
 2AEC                   .dbline 1947
 2AEC           ;                               }//if(yy_cishu)            
 2AEC                   .dbline 1948
 2AEC           ;                       }//if(y_cishu)...延时作用
 2AEC                   .dbline 1949
 2AEC           ;               }//if(y_change) 
 2AEC                   .dbline 1950
 2AEC           ;       }//if(is_uart==1)
 2AEC 55C1              xjmp L472
 2AEE           L471:
 2AEE                   .dbline 1957
 2AEE           ; 
 2AEE           ; ///////////----手动模式--END//////////////////////////////////////////        
 2AEE           ; 
 2AEE           ; ///////////----自动模式--BEGIN//////////////////////////////////////////      
 2AEE           ; 
 2AEE           ;               else//自动模式,is_uart==0
 2AEE           ;               {
 2AEE                   .dbline 1958
 2AEE           ;              a_cishu--;//若++第一次反应慢
 2AEE 80911E02          lds R24,_a_cishu
 2AF2 8150              subi R24,1
 2AF4 80931E02          sts _a_cishu,R24
 2AF8                   .dbline 1959
 2AF8           ;                   if(a_cishu==0xff)
 2AF8 8F3F              cpi R24,255
 2AFA 09F0              breq X313
 2AFC 4DC1              xjmp L640
 2AFE           X313:
 2AFE           X265:
 2AFE                   .dbline 1960
 2AFE           ;                   {
 2AFE                   .dbline 1961
 2AFE           ;                         aa_cishu--;//若++第一次反应慢
 2AFE 80911F02          lds R24,_aa_cishu
 2B02 8150              subi R24,1
 2B04 80931F02          sts _aa_cishu,R24
 2B08                   .dbline 1962
 2B08           ;                          if(aa_cishu==0xff)
 2B08 8F3F              cpi R24,255
 2B0A 09F0              breq X314
 2B0C 45C1              xjmp L642
 2B0E           X314:
 2B0E           X266:
 2B0E                   .dbline 1963
 2B0E           ;                          {
 2B0E                   .dbline 1964
 2B0E           ;                                  aaa_cishu++;
 2B0E 80912002          lds R24,_aaa_cishu
 2B12 8F5F              subi R24,255    ; addi 1
 2B14 80932002          sts _aaa_cishu,R24
 2B18                   .dbline 1965
 2B18           ;                                  if(aaa_cishu==m_time)
 2B18 8031              cpi R24,16
 2B1A 09F0              breq X315
 2B1C 3DC1              xjmp L644
 2B1E           X315:
 2B1E           X267:
 2B1E                   .dbline 1966
 2B1E           ;                                  {
 2B1E                   .dbline 1967
 2B1E           ;                               aaa_cishu=0; 
 2B1E 2224              clr R2
 2B20 20922002          sts _aaa_cishu,R2
 2B24                   .dbline 1969
 2B24           ;                                   //执行代码
 2B24           ;                                   auto_cishu++;
 2B24 80912202          lds R24,_auto_cishu
 2B28 8F5F              subi R24,255    ; addi 1
 2B2A 80932202          sts _auto_cishu,R24
 2B2E                   .dbline 1970
 2B2E           ;                                   if(auto_cishu==7)
 2B2E 8730              cpi R24,7
 2B30 19F4              brne L646
 2B32           X268:
 2B32                   .dbline 1971
 2B32           ;                                   {
 2B32                   .dbline 1972
 2B32           ;                                        auto_cishu=1;
 2B32 81E0              ldi R24,1
 2B34 80932202          sts _auto_cishu,R24
 2B38                   .dbline 1973
 2B38           ;                                    }//if(auto_cishu==6)
 2B38           L646:
 2B38                   .dbline 1975
 2B38           ; 
 2B38           ;                                          switch(auto_cishu)
 2B38 60912202          lds R22,_auto_cishu
 2B3C 7727              clr R23
 2B3E 6130              cpi R22,1
 2B40 E0E0              ldi R30,0
 2B42 7E07              cpc R23,R30
 2B44 D1F0              breq L651
 2B46           X269:
 2B46 6230              cpi R22,2
 2B48 E0E0              ldi R30,0
 2B4A 7E07              cpc R23,R30
 2B4C 09F4              brne X316
 2B4E 42C0              xjmp L662
 2B50           X316:
 2B50           X270:
 2B50 6330              cpi R22,3
 2B52 E0E0              ldi R30,0
 2B54 7E07              cpc R23,R30
 2B56 09F4              brne X317
 2B58 6BC0              xjmp L669
 2B5A           X317:
 2B5A           X271:
 2B5A 6430              cpi R22,4
 2B5C E0E0              ldi R30,0
 2B5E 7E07              cpc R23,R30
 2B60 09F4              brne X318
 2B62 93C0              xjmp L680
 2B64           X318:
 2B64           X272:
 2B64 6530              cpi R22,5
 2B66 E0E0              ldi R30,0
 2B68 7E07              cpc R23,R30
 2B6A 09F4              brne X319
 2B6C BBC0              xjmp L691
 2B6E           X319:
 2B6E           X273:
 2B6E 6630              cpi R22,6
 2B70 E0E0              ldi R30,0
 2B72 7E07              cpc R23,R30
 2B74 09F4              brne X320
 2B76 E4C0              xjmp L698
 2B78           X320:
 2B78           X274:
 2B78 0FC1              xjmp L648
 2B7A           L651:
 2B7A                   .dbline 1978
 2B7A           ;                                          {
 2B7A           ;                                          case 0x01://直游，15
 2B7A           ;                                                  Speed=Speed_tem_z[15];
 2B7A 20906000          lds R2,_Speed_tem_z+15
 2B7E 20920000          sts _Speed,R2
 2B82                   .dbline 1979
 2B82           ;                                                  for(i=0;i<=2;i++)//对应摆幅变化
 2B82 4427              clr R20
 2B84 0FC0              xjmp L656
 2B86           L653:
 2B86                   .dbline 1980
 2B86           ;                                                          Amplitude_degree[i]=Amplitude_degree_tem[15][i];
 2B86 80E0              ldi R24,<_Amplitude_degree_tem+45
 2B88 90E0              ldi R25,>_Amplitude_degree_tem+45
 2B8A E42F              mov R30,R20
 2B8C FF27              clr R31
 2B8E E80F              add R30,R24
 2B90 F91F              adc R31,R25
 2B92 2080              ldd R2,z+0
 2B94 80E0              ldi R24,<_Amplitude_degree
 2B96 90E0              ldi R25,>_Amplitude_degree
 2B98 E42F              mov R30,R20
 2B9A FF27              clr R31
 2B9C E80F              add R30,R24
 2B9E F91F              adc R31,R25
 2BA0 2082              std z+0,R2
 2BA2           L654:
 2BA2                   .dbline 1979
 2BA2 4395              inc R20
 2BA4           L656:
 2BA4                   .dbline 1979
 2BA4 82E0              ldi R24,2
 2BA6 8417              cp R24,R20
 2BA8 70F7              brsh L653
 2BAA           X275:
 2BAA                   .dbline 1981
 2BAA           ;                                                  for(i=0;i<=2;i++)
 2BAA 4427              clr R20
 2BAC 0DC0              xjmp L661
 2BAE           L658:
 2BAE                   .dbline 1982
 2BAE           ;                                                          Dynamic_Offset_degree[i]=0;
 2BAE 80E0              ldi R24,<_Dynamic_Offset_degree
 2BB0 90E0              ldi R25,>_Dynamic_Offset_degree
 2BB2 E42F              mov R30,R20
 2BB4 FF27              clr R31
 2BB6 EE0F              lsl R30
 2BB8 FF1F              rol R31
 2BBA E80F              add R30,R24
 2BBC F91F              adc R31,R25
 2BBE 2224              clr R2
 2BC0 3324              clr R3
 2BC2 3182              std z+1,R3
 2BC4 2082              std z+0,R2
 2BC6           L659:
 2BC6                   .dbline 1981
 2BC6 4395              inc R20
 2BC8           L661:
 2BC8                   .dbline 1981
 2BC8 82E0              ldi R24,2
 2BCA 8417              cp R24,R20
 2BCC 80F7              brsh L658
 2BCE           X276:
 2BCE                   .dbline 1983
 2BCE           ;                                                  init_dynamic_offset();
 2BCE 0E949A02          xcall _init_dynamic_offset
 2BD2                   .dbline 1984
 2BD2           ;                                                  break;
 2BD2 E2C0              xjmp L649
 2BD4           L662:
 2BD4                   .dbline 1986
 2BD4           ;                                          case 0x02://右转
 2BD4           ;                                                  Speed=Speed_tem_z[15];
 2BD4 20906000          lds R2,_Speed_tem_z+15
 2BD8 20920000          sts _Speed,R2
 2BDC                   .dbline 1987
 2BDC           ;                                                  for(i=0;i<=2;i++)
 2BDC 4427              clr R20
 2BDE 22C0              xjmp L667
 2BE0           L664:
 2BE0                   .dbline 1988
 2BE0           ;                                                       {
 2BE0                   .dbline 1989
 2BE0           ;                                                               Dynamic_Offset_degree_char[i]=Dynamic_Offset_degree_origin[3][i];
 2BE0 80E0              ldi R24,<_Dynamic_Offset_degree_origin+9
 2BE2 90E0              ldi R25,>_Dynamic_Offset_degree_origin+9
 2BE4 E42F              mov R30,R20
 2BE6 FF27              clr R31
 2BE8 E80F              add R30,R24
 2BEA F91F              adc R31,R25
 2BEC 2080              ldd R2,z+0
 2BEE 80E0              ldi R24,<_Dynamic_Offset_degree_char
 2BF0 90E0              ldi R25,>_Dynamic_Offset_degree_char
 2BF2 E42F              mov R30,R20
 2BF4 FF27              clr R31
 2BF6 E80F              add R30,R24
 2BF8 F91F              adc R31,R25
 2BFA 2082              std z+0,R2
 2BFC                   .dbline 1990
 2BFC           ;                                                               Dynamic_Offset_degree[i]=char2int(Dynamic_Offset_degree_char[i],0);
 2BFC 2227              clr R18
 2BFE E42F              mov R30,R20
 2C00 FF27              clr R31
 2C02 E80F              add R30,R24
 2C04 F91F              adc R31,R25
 2C06 0081              ldd R16,z+0
 2C08 0E943F04          xcall _char2int
 2C0C 5801              movw R10,R16
 2C0E 80E0              ldi R24,<_Dynamic_Offset_degree
 2C10 90E0              ldi R25,>_Dynamic_Offset_degree
 2C12 E42F              mov R30,R20
 2C14 FF27              clr R31
 2C16 EE0F              lsl R30
 2C18 FF1F              rol R31
 2C1A E80F              add R30,R24
 2C1C F91F              adc R31,R25
 2C1E B182              std z+1,R11
 2C20 A082              std z+0,R10
 2C22                   .dbline 1991
 2C22           ;                                                       }
 2C22           L665:
 2C22                   .dbline 1987
 2C22 4395              inc R20
 2C24           L667:
 2C24                   .dbline 1987
 2C24 82E0              ldi R24,2
 2C26 8417              cp R24,R20
 2C28 D8F6              brsh L664
 2C2A           X277:
 2C2A                   .dbline 1992
 2C2A           ;                                                       init_dynamic_offset();
 2C2A 0E949A02          xcall _init_dynamic_offset
 2C2E                   .dbline 1993
 2C2E           ;                                                  break;
 2C2E B4C0              xjmp L649
 2C30           L669:
 2C30                   .dbline 1995
 2C30           ;                                          case 0x03://直游，11
 2C30           ;                                                  Speed=Speed_tem_z[11];
 2C30 20905C00          lds R2,_Speed_tem_z+11
 2C34 20920000          sts _Speed,R2
 2C38                   .dbline 1996
 2C38           ;                                                  for(i=0;i<=2;i++)//对应摆幅变化
 2C38 4427              clr R20
 2C3A 0FC0              xjmp L674
 2C3C           L671:
 2C3C                   .dbline 1997
 2C3C           ;                                                          Amplitude_degree[i]=Amplitude_degree_tem[11][i];
 2C3C 80E0              ldi R24,<_Amplitude_degree_tem+33
 2C3E 90E0              ldi R25,>_Amplitude_degree_tem+33
 2C40 E42F              mov R30,R20
 2C42 FF27              clr R31
 2C44 E80F              add R30,R24
 2C46 F91F              adc R31,R25
 2C48 2080              ldd R2,z+0
 2C4A 80E0              ldi R24,<_Amplitude_degree
 2C4C 90E0              ldi R25,>_Amplitude_degree
 2C4E E42F              mov R30,R20
 2C50 FF27              clr R31
 2C52 E80F              add R30,R24
 2C54 F91F              adc R31,R25
 2C56 2082              std z+0,R2
 2C58           L672:
 2C58                   .dbline 1996
 2C58 4395              inc R20
 2C5A           L674:
 2C5A                   .dbline 1996
 2C5A 82E0              ldi R24,2
 2C5C 8417              cp R24,R20
 2C5E 70F7              brsh L671
 2C60           X278:
 2C60                   .dbline 1998
 2C60           ;                                                  for(i=0;i<=2;i++)
 2C60 4427              clr R20
 2C62 0DC0              xjmp L679
 2C64           L676:
 2C64                   .dbline 1999
 2C64           ;                                                          Dynamic_Offset_degree[i]=0;
 2C64 80E0              ldi R24,<_Dynamic_Offset_degree
 2C66 90E0              ldi R25,>_Dynamic_Offset_degree
 2C68 E42F              mov R30,R20
 2C6A FF27              clr R31
 2C6C EE0F              lsl R30
 2C6E FF1F              rol R31
 2C70 E80F              add R30,R24
 2C72 F91F              adc R31,R25
 2C74 2224              clr R2
 2C76 3324              clr R3
 2C78 3182              std z+1,R3
 2C7A 2082              std z+0,R2
 2C7C           L677:
 2C7C                   .dbline 1998
 2C7C 4395              inc R20
 2C7E           L679:
 2C7E                   .dbline 1998
 2C7E 82E0              ldi R24,2
 2C80 8417              cp R24,R20
 2C82 80F7              brsh L676
 2C84           X279:
 2C84                   .dbline 2000
 2C84           ;                                                  init_dynamic_offset();
 2C84 0E949A02          xcall _init_dynamic_offset
 2C88                   .dbline 2001
 2C88           ;                                                  break;
 2C88 87C0              xjmp L649
 2C8A           L680:
 2C8A                   .dbline 2003
 2C8A           ;                                          case 0x04://直游，11
 2C8A           ;                                                  Speed=Speed_tem_z[11];
 2C8A 20905C00          lds R2,_Speed_tem_z+11
 2C8E 20920000          sts _Speed,R2
 2C92                   .dbline 2004
 2C92           ;                                                  for(i=0;i<=2;i++)//对应摆幅变化
 2C92 4427              clr R20
 2C94 0FC0              xjmp L685
 2C96           L682:
 2C96                   .dbline 2005
 2C96           ;                                                          Amplitude_degree[i]=Amplitude_degree_tem[11][i];
 2C96 80E0              ldi R24,<_Amplitude_degree_tem+33
 2C98 90E0              ldi R25,>_Amplitude_degree_tem+33
 2C9A E42F              mov R30,R20
 2C9C FF27              clr R31
 2C9E E80F              add R30,R24
 2CA0 F91F              adc R31,R25
 2CA2 2080              ldd R2,z+0
 2CA4 80E0              ldi R24,<_Amplitude_degree
 2CA6 90E0              ldi R25,>_Amplitude_degree
 2CA8 E42F              mov R30,R20
 2CAA FF27              clr R31
 2CAC E80F              add R30,R24
 2CAE F91F              adc R31,R25
 2CB0 2082              std z+0,R2
 2CB2           L683:
 2CB2                   .dbline 2004
 2CB2 4395              inc R20
 2CB4           L685:
 2CB4                   .dbline 2004
 2CB4 82E0              ldi R24,2
 2CB6 8417              cp R24,R20
 2CB8 70F7              brsh L682
 2CBA           X280:
 2CBA                   .dbline 2006
 2CBA           ;                                                  for(i=0;i<=2;i++)
 2CBA 4427              clr R20
 2CBC 0DC0              xjmp L690
 2CBE           L687:
 2CBE                   .dbline 2007
 2CBE           ;                                                          Dynamic_Offset_degree[i]=0;
 2CBE 80E0              ldi R24,<_Dynamic_Offset_degree
 2CC0 90E0              ldi R25,>_Dynamic_Offset_degree
 2CC2 E42F              mov R30,R20
 2CC4 FF27              clr R31
 2CC6 EE0F              lsl R30
 2CC8 FF1F              rol R31
 2CCA E80F              add R30,R24
 2CCC F91F              adc R31,R25
 2CCE 2224              clr R2
 2CD0 3324              clr R3
 2CD2 3182              std z+1,R3
 2CD4 2082              std z+0,R2
 2CD6           L688:
 2CD6                   .dbline 2006
 2CD6 4395              inc R20
 2CD8           L690:
 2CD8                   .dbline 2006
 2CD8 82E0              ldi R24,2
 2CDA 8417              cp R24,R20
 2CDC 80F7              brsh L687
 2CDE           X281:
 2CDE                   .dbline 2008
 2CDE           ;                                                  init_dynamic_offset();
 2CDE 0E949A02          xcall _init_dynamic_offset
 2CE2                   .dbline 2009
 2CE2           ;                                                  break;
 2CE2 5AC0              xjmp L649
 2CE4           L691:
 2CE4                   .dbline 2011
 2CE4           ;                                          case 0x05://右转
 2CE4           ;                                                  Speed=Speed_tem_z[11];
 2CE4 20905C00          lds R2,_Speed_tem_z+11
 2CE8 20920000          sts _Speed,R2
 2CEC                   .dbline 2012
 2CEC           ;                            for(i=0;i<=2;i++)
 2CEC 4427              clr R20
 2CEE 22C0              xjmp L696
 2CF0           L693:
 2CF0                   .dbline 2013
 2CF0           ;                                                       {
 2CF0                   .dbline 2014
 2CF0           ;                                                               Dynamic_Offset_degree_char[i]=Dynamic_Offset_degree_origin[3][i];
 2CF0 80E0              ldi R24,<_Dynamic_Offset_degree_origin+9
 2CF2 90E0              ldi R25,>_Dynamic_Offset_degree_origin+9
 2CF4 E42F              mov R30,R20
 2CF6 FF27              clr R31
 2CF8 E80F              add R30,R24
 2CFA F91F              adc R31,R25
 2CFC 2080              ldd R2,z+0
 2CFE 80E0              ldi R24,<_Dynamic_Offset_degree_char
 2D00 90E0              ldi R25,>_Dynamic_Offset_degree_char
 2D02 E42F              mov R30,R20
 2D04 FF27              clr R31
 2D06 E80F              add R30,R24
 2D08 F91F              adc R31,R25
 2D0A 2082              std z+0,R2
 2D0C                   .dbline 2015
 2D0C           ;                                                               Dynamic_Offset_degree[i]=char2int(Dynamic_Offset_degree_char[i],0);
 2D0C 2227              clr R18
 2D0E E42F              mov R30,R20
 2D10 FF27              clr R31
 2D12 E80F              add R30,R24
 2D14 F91F              adc R31,R25
 2D16 0081              ldd R16,z+0
 2D18 0E943F04          xcall _char2int
 2D1C 5801              movw R10,R16
 2D1E 80E0              ldi R24,<_Dynamic_Offset_degree
 2D20 90E0              ldi R25,>_Dynamic_Offset_degree
 2D22 E42F              mov R30,R20
 2D24 FF27              clr R31
 2D26 EE0F              lsl R30
 2D28 FF1F              rol R31
 2D2A E80F              add R30,R24
 2D2C F91F              adc R31,R25
 2D2E B182              std z+1,R11
 2D30 A082              std z+0,R10
 2D32                   .dbline 2016
 2D32           ;                                                       }
 2D32           L694:
 2D32                   .dbline 2012
 2D32 4395              inc R20
 2D34           L696:
 2D34                   .dbline 2012
 2D34 82E0              ldi R24,2
 2D36 8417              cp R24,R20
 2D38 D8F6              brsh L693
 2D3A           X282:
 2D3A                   .dbline 2017
 2D3A           ;                                                       init_dynamic_offset();
 2D3A 0E949A02          xcall _init_dynamic_offset
 2D3E                   .dbline 2018
 2D3E           ;                                                       break;
 2D3E 2CC0              xjmp L649
 2D40           L698:
 2D40                   .dbline 2020
 2D40           ;                                               case 0x06://直游，15
 2D40           ;                                                  Speed=Speed_tem_z[15];
 2D40 20906000          lds R2,_Speed_tem_z+15
 2D44 20920000          sts _Speed,R2
 2D48                   .dbline 2021
 2D48           ;                                                  for(i=0;i<=2;i++)//对应摆幅变化
 2D48 4427              clr R20
 2D4A 0FC0              xjmp L703
 2D4C           L700:
 2D4C                   .dbline 2022
 2D4C           ;                                                          Amplitude_degree[i]=Amplitude_degree_tem[15][i];
 2D4C 80E0              ldi R24,<_Amplitude_degree_tem+45
 2D4E 90E0              ldi R25,>_Amplitude_degree_tem+45
 2D50 E42F              mov R30,R20
 2D52 FF27              clr R31
 2D54 E80F              add R30,R24
 2D56 F91F              adc R31,R25
 2D58 2080              ldd R2,z+0
 2D5A 80E0              ldi R24,<_Amplitude_degree
 2D5C 90E0              ldi R25,>_Amplitude_degree
 2D5E E42F              mov R30,R20
 2D60 FF27              clr R31
 2D62 E80F              add R30,R24
 2D64 F91F              adc R31,R25
 2D66 2082              std z+0,R2
 2D68           L701:
 2D68                   .dbline 2021
 2D68 4395              inc R20
 2D6A           L703:
 2D6A                   .dbline 2021
 2D6A 82E0              ldi R24,2
 2D6C 8417              cp R24,R20
 2D6E 70F7              brsh L700
 2D70           X283:
 2D70                   .dbline 2023
 2D70           ;                                                  for(i=0;i<=2;i++)
 2D70 4427              clr R20
 2D72 0DC0              xjmp L708
 2D74           L705:
 2D74                   .dbline 2024
 2D74           ;                                                          Dynamic_Offset_degree[i]=0;
 2D74 80E0              ldi R24,<_Dynamic_Offset_degree
 2D76 90E0              ldi R25,>_Dynamic_Offset_degree
 2D78 E42F              mov R30,R20
 2D7A FF27              clr R31
 2D7C EE0F              lsl R30
 2D7E FF1F              rol R31
 2D80 E80F              add R30,R24
 2D82 F91F              adc R31,R25
 2D84 2224              clr R2
 2D86 3324              clr R3
 2D88 3182              std z+1,R3
 2D8A 2082              std z+0,R2
 2D8C           L706:
 2D8C                   .dbline 2023
 2D8C 4395              inc R20
 2D8E           L708:
 2D8E                   .dbline 2023
 2D8E 82E0              ldi R24,2
 2D90 8417              cp R24,R20
 2D92 80F7              brsh L705
 2D94           X284:
 2D94                   .dbline 2025
 2D94           ;                                                  init_dynamic_offset();
 2D94 0E949A02          xcall _init_dynamic_offset
 2D98                   .dbline 2026
 2D98           ;                                                  break;
 2D98           L648:
 2D98           L649:
 2D98                   .dbline 2029
 2D98           ;                                          }//switch(auto_cishu)
 2D98           ;                                  //代码结束
 2D98           ;                                }//if(aaa_cishu)
 2D98           L644:
 2D98                   .dbline 2030
 2D98           ;                        }//if(aa_cishu)                   
 2D98           L642:
 2D98                   .dbline 2031
 2D98           ;                      }//if(a_cishu)...延时作用
 2D98           L640:
 2D98                   .dbline 2032
 2D98           ;                   }//自动模式,is_uart==0
 2D98           L472:
 2D98                   .dbline 2036
 2D98           ; 
 2D98           ; ///////////----自动模式--END//////////////////////////////////////////        
 2D98           ; 
 2D98           ;       }//while(1)
 2D98           L469:
 2D98                   .dbline 1560
 2D98 9BC9              xjmp L468
 2D9A           X285:
 2D9A                   .dbline -2
 2D9A           L453:
 2D9A                   .dbline 0 ; func end
 2D9A 2A96              adiw R28,10
 2D9C 0895              ret
 2D9E                   .dbsym r tem_y 22 c
 2D9E                   .dbsym r tem 22 c
 2D9E                   .dbsym r j 10 c
 2D9E                   .dbsym r i 20 c
 2D9E                   .dbend
                        .area bss(ram, con, rel)
 0000                   .dbfile G:\wsg\SchoolTrain\FishRobot\机器鱼\机器鱼培训资料\机器鱼培训资料\机器鱼鱼体波程序\fish_0_100115\11fish.c
 0000           _redata_i2c::
 0000                   .blkb 1
 0001                   .dbsym e redata_i2c _redata_i2c c
 0001           _redata_tem::
 0001                   .blkb 1
 0002                   .dbsym e redata_tem _redata_tem c
 0002           _redata::
 0002                   .blkb 1
 0003                   .dbsym e redata _redata c
 0003           _PWM_Period_value::
 0003                   .blkb 2
 0005                   .dbsym e PWM_Period_value _PWM_Period_value I
 0005           _MiddlePosition_value::
 0005                   .blkb 2
 0007                   .dbsym e MiddlePosition_value _MiddlePosition_value I
 0007           _RightLimit_value::
 0007                   .blkb 2
 0009                   .dbsym e RightLimit_value _RightLimit_value I
 0009           _LeftLimit_value::
 0009                   .blkb 2
 000B                   .dbsym e LeftLimit_value _LeftLimit_value I
                        .area lit(rom, con, rel)
 0000           L84:
 0000 00002041          .word 0x0,0x4120
 0004           L83:
 0004 00000041          .word 0x0,0x4100
 0008           L53:
 0008 FBCB9640          .word 0xcbfb,0x4096
 000C           L48:
 000C 0000C040          .word 0x0,0x40c0
 0010           L47:
 0010 F90FC93F          .word 0xff9,0x3fc9
 0014           L40:
 0014 00003443          .word 0x0,0x4334
 0018           L39:
 0018 F90F4940          .word 0xff9,0x4049
 001C           L38:
 001C F90FC940          .word 0xff9,0x40c9
 0020           L7:
 0020 0000803F          .word 0x0,0x3f80
 0024           L6:
 0024 00000000          .word 0x0,0x0
 0028           ; }//main
 0028           ; 
